	.file	"parser.cpp"
	.text
	.section	.text$_ZnwyPv,"x"
	.linkonce discard
	.globl	_ZnwyPv
	.def	_ZnwyPv;	.scl	2;	.type	32;	.endef
	.seh_proc	_ZnwyPv
_ZnwyPv:
.LFB170:
	pushq	%rbp
	.seh_pushreg	%rbp
	movq	%rsp, %rbp
	.seh_setframe	%rbp, 0
	.seh_endprologue
	movq	%rcx, 16(%rbp)
	movq	%rdx, 24(%rbp)
	movq	24(%rbp), %rax
	popq	%rbp
	ret
	.seh_endproc
	.section	.text$_ZdlPvS_,"x"
	.linkonce discard
	.globl	_ZdlPvS_
	.def	_ZdlPvS_;	.scl	2;	.type	32;	.endef
	.seh_proc	_ZdlPvS_
_ZdlPvS_:
.LFB172:
	pushq	%rbp
	.seh_pushreg	%rbp
	movq	%rsp, %rbp
	.seh_setframe	%rbp, 0
	.seh_endprologue
	movq	%rcx, 16(%rbp)
	movq	%rdx, 24(%rbp)
	nop
	popq	%rbp
	ret
	.seh_endproc
	.section	.text$_ZNSt11char_traitsIcE2ltERKcS2_,"x"
	.linkonce discard
	.globl	_ZNSt11char_traitsIcE2ltERKcS2_
	.def	_ZNSt11char_traitsIcE2ltERKcS2_;	.scl	2;	.type	32;	.endef
	.seh_proc	_ZNSt11char_traitsIcE2ltERKcS2_
_ZNSt11char_traitsIcE2ltERKcS2_:
.LFB243:
	pushq	%rbp
	.seh_pushreg	%rbp
	movq	%rsp, %rbp
	.seh_setframe	%rbp, 0
	.seh_endprologue
	movq	%rcx, 16(%rbp)
	movq	%rdx, 24(%rbp)
	movq	16(%rbp), %rax
	movzbl	(%rax), %eax
	movl	%eax, %edx
	movq	24(%rbp), %rax
	movzbl	(%rax), %eax
	cmpb	%al, %dl
	setb	%al
	popq	%rbp
	ret
	.seh_endproc
	.section	.text$_ZNSt11char_traitsIcE7compareEPKcS2_y,"x"
	.linkonce discard
	.globl	_ZNSt11char_traitsIcE7compareEPKcS2_y
	.def	_ZNSt11char_traitsIcE7compareEPKcS2_y;	.scl	2;	.type	32;	.endef
	.seh_proc	_ZNSt11char_traitsIcE7compareEPKcS2_y
_ZNSt11char_traitsIcE7compareEPKcS2_y:
.LFB244:
	pushq	%rbp
	.seh_pushreg	%rbp
	movq	%rsp, %rbp
	.seh_setframe	%rbp, 0
	subq	$48, %rsp
	.seh_stackalloc	48
	.seh_endprologue
	movq	%rcx, 16(%rbp)
	movq	%rdx, 24(%rbp)
	movq	%r8, 32(%rbp)
	cmpq	$0, 32(%rbp)
	jne	.L7
	movl	$0, %eax
	jmp	.L8
.L7:
	movl	$0, %eax
	testb	%al, %al
	je	.L10
	movq	$0, -8(%rbp)
	jmp	.L11
.L14:
	movq	24(%rbp), %rdx
	movq	-8(%rbp), %rax
	addq	%rax, %rdx
	movq	16(%rbp), %rcx
	movq	-8(%rbp), %rax
	addq	%rcx, %rax
	movq	%rax, %rcx
	call	_ZNSt11char_traitsIcE2ltERKcS2_
	testb	%al, %al
	je	.L12
	movl	$-1, %eax
	jmp	.L8
.L12:
	movq	16(%rbp), %rdx
	movq	-8(%rbp), %rax
	addq	%rax, %rdx
	movq	24(%rbp), %rcx
	movq	-8(%rbp), %rax
	addq	%rcx, %rax
	movq	%rax, %rcx
	call	_ZNSt11char_traitsIcE2ltERKcS2_
	testb	%al, %al
	je	.L13
	movl	$1, %eax
	jmp	.L8
.L13:
	addq	$1, -8(%rbp)
.L11:
	movq	-8(%rbp), %rax
	cmpq	32(%rbp), %rax
	jb	.L14
	movl	$0, %eax
	jmp	.L8
.L10:
	movq	32(%rbp), %rcx
	movq	24(%rbp), %rdx
	movq	16(%rbp), %rax
	movq	%rcx, %r8
	movq	%rax, %rcx
	call	memcmp
	nop
.L8:
	addq	$48, %rsp
	popq	%rbp
	ret
	.seh_endproc
	.section	.text$_ZNSt11char_traitsIcE6lengthEPKc,"x"
	.linkonce discard
	.globl	_ZNSt11char_traitsIcE6lengthEPKc
	.def	_ZNSt11char_traitsIcE6lengthEPKc;	.scl	2;	.type	32;	.endef
	.seh_proc	_ZNSt11char_traitsIcE6lengthEPKc
_ZNSt11char_traitsIcE6lengthEPKc:
.LFB245:
	pushq	%rbp
	.seh_pushreg	%rbp
	movq	%rsp, %rbp
	.seh_setframe	%rbp, 0
	subq	$32, %rsp
	.seh_stackalloc	32
	.seh_endprologue
	movq	%rcx, 16(%rbp)
	movl	$0, %eax
	testb	%al, %al
	je	.L17
	movq	16(%rbp), %rax
	movq	%rax, %rcx
	call	_ZN9__gnu_cxx11char_traitsIcE6lengthEPKc
	jmp	.L18
.L17:
	movq	16(%rbp), %rax
	movq	%rax, %rcx
	call	strlen
	nop
.L18:
	addq	$32, %rsp
	popq	%rbp
	ret
	.seh_endproc
	.globl	_ZSt19piecewise_construct
	.section	.rdata$_ZSt19piecewise_construct,"dr"
	.linkonce same_size
_ZSt19piecewise_construct:
	.space 1
	.section	.text$_ZNSt10_Hash_impl4hashEPKvyy,"x"
	.linkonce discard
	.globl	_ZNSt10_Hash_impl4hashEPKvyy
	.def	_ZNSt10_Hash_impl4hashEPKvyy;	.scl	2;	.type	32;	.endef
	.seh_proc	_ZNSt10_Hash_impl4hashEPKvyy
_ZNSt10_Hash_impl4hashEPKvyy:
.LFB1059:
	pushq	%rbp
	.seh_pushreg	%rbp
	movq	%rsp, %rbp
	.seh_setframe	%rbp, 0
	subq	$32, %rsp
	.seh_stackalloc	32
	.seh_endprologue
	movq	%rcx, 16(%rbp)
	movq	%rdx, 24(%rbp)
	movq	%r8, 32(%rbp)
	movq	32(%rbp), %rcx
	movq	24(%rbp), %rdx
	movq	16(%rbp), %rax
	movq	%rcx, %r8
	movq	%rax, %rcx
	call	_ZSt11_Hash_bytesPKvyy
	addq	$32, %rsp
	popq	%rbp
	ret
	.seh_endproc
	.section	.text$_ZZNSt7__cxx119to_stringEiENKUlPcyE_clES0_y,"x"
	.linkonce discard
	.align 2
	.globl	_ZZNSt7__cxx119to_stringEiENKUlPcyE_clES0_y
	.def	_ZZNSt7__cxx119to_stringEiENKUlPcyE_clES0_y;	.scl	2;	.type	32;	.endef
	.seh_proc	_ZZNSt7__cxx119to_stringEiENKUlPcyE_clES0_y
_ZZNSt7__cxx119to_stringEiENKUlPcyE_clES0_y:
.LFB1415:
	pushq	%rbp
	.seh_pushreg	%rbp
	movq	%rsp, %rbp
	.seh_setframe	%rbp, 0
	subq	$32, %rsp
	.seh_stackalloc	32
	.seh_endprologue
	movq	%rcx, 16(%rbp)
	movq	%rdx, 24(%rbp)
	movq	%r8, 32(%rbp)
	movq	24(%rbp), %rax
	movb	$45, (%rax)
	movq	16(%rbp), %rax
	movl	8(%rax), %r8d
	movq	16(%rbp), %rax
	movl	4(%rax), %eax
	movq	16(%rbp), %rdx
	movzbl	(%rdx), %edx
	movzbl	%dl, %ecx
	movq	24(%rbp), %rdx
	addq	%rdx, %rcx
	movl	%eax, %edx
	call	_ZNSt8__detail18__to_chars_10_implIjEEvPcjT_
	movq	32(%rbp), %rax
	addq	$32, %rsp
	popq	%rbp
	ret
	.seh_endproc
	.section	.text$_ZNSt7__cxx119to_stringEi,"x"
	.linkonce discard
	.globl	_ZNSt7__cxx119to_stringEi
	.def	_ZNSt7__cxx119to_stringEi;	.scl	2;	.type	32;	.endef
	.seh_proc	_ZNSt7__cxx119to_stringEi
_ZNSt7__cxx119to_stringEi:
.LFB1412:
	pushq	%rbp
	.seh_pushreg	%rbp
	movq	%rsp, %rbp
	.seh_setframe	%rbp, 0
	subq	$80, %rsp
	.seh_stackalloc	80
	.seh_endprologue
	movq	%rcx, 16(%rbp)
	movl	%edx, 24(%rbp)
	movl	24(%rbp), %eax
	shrl	$31, %eax
	movb	%al, -1(%rbp)
	cmpb	$0, -1(%rbp)
	je	.L24
	movl	24(%rbp), %eax
	negl	%eax
	jmp	.L25
.L24:
	movl	24(%rbp), %eax
.L25:
	movl	%eax, -8(%rbp)
	movl	-8(%rbp), %eax
	movl	$10, %edx
	movl	%eax, %ecx
	call	_ZNSt8__detail14__to_chars_lenIjEEjT_i
	movl	%eax, -12(%rbp)
	movq	16(%rbp), %rax
	movq	%rax, %rcx
	call	_ZNSt7__cxx1112basic_stringIcSt11char_traitsIcESaIcEEC1Ev
	movzbl	-1(%rbp), %eax
	movb	%al, -24(%rbp)
	movl	-12(%rbp), %eax
	movl	%eax, -20(%rbp)
	movl	-8(%rbp), %eax
	movl	%eax, -16(%rbp)
	movzbl	-1(%rbp), %edx
	movl	-12(%rbp), %eax
	addl	%edx, %eax
	movl	%eax, %ecx
	movq	-24(%rbp), %rax
	movq	%rax, -48(%rbp)
	movl	-16(%rbp), %eax
	movl	%eax, -40(%rbp)
	leaq	-48(%rbp), %rdx
	movq	16(%rbp), %rax
	movq	%rdx, %r8
	movq	%rcx, %rdx
	movq	%rax, %rcx
	call	_ZNSt7__cxx1112basic_stringIcSt11char_traitsIcESaIcEE22__resize_and_overwriteIZNS_9to_stringEiEUlPcyE_EEvyT_
	movq	16(%rbp), %rax
	addq	$80, %rsp
	popq	%rbp
	ret
	.seh_handler	__gxx_personality_seh0, @unwind, @except
	.seh_handlerdata
.LLSDA1412:
	.byte	0xff
	.byte	0xff
	.byte	0x1
	.uleb128 .LLSDACSE1412-.LLSDACSB1412
.LLSDACSB1412:
.LLSDACSE1412:
	.section	.text$_ZNSt7__cxx119to_stringEi,"x"
	.linkonce discard
	.seh_endproc
	.section	.text$_ZNSt8__detail14__to_chars_lenIjEEjT_i,"x"
	.linkonce discard
	.globl	_ZNSt8__detail14__to_chars_lenIjEEjT_i
	.def	_ZNSt8__detail14__to_chars_lenIjEEjT_i;	.scl	2;	.type	32;	.endef
	.seh_proc	_ZNSt8__detail14__to_chars_lenIjEEjT_i
_ZNSt8__detail14__to_chars_lenIjEEjT_i:
.LFB1417:
	pushq	%rbp
	.seh_pushreg	%rbp
	movq	%rsp, %rbp
	.seh_setframe	%rbp, 0
	subq	$16, %rsp
	.seh_stackalloc	16
	.seh_endprologue
	movl	%ecx, 16(%rbp)
	movl	%edx, 24(%rbp)
	movl	$1, -4(%rbp)
	movl	24(%rbp), %eax
	imull	%eax, %eax
	movl	%eax, -8(%rbp)
	movl	24(%rbp), %eax
	movl	-8(%rbp), %edx
	imull	%edx, %eax
	movl	%eax, -12(%rbp)
	movl	24(%rbp), %eax
	movl	-12(%rbp), %edx
	imull	%edx, %eax
	movl	%eax, -16(%rbp)
.L33:
	movl	24(%rbp), %eax
	cmpl	%eax, 16(%rbp)
	jnb	.L28
	movl	-4(%rbp), %eax
	jmp	.L29
.L28:
	movl	16(%rbp), %eax
	cmpl	-8(%rbp), %eax
	jnb	.L30
	movl	-4(%rbp), %eax
	addl	$1, %eax
	jmp	.L29
.L30:
	movl	16(%rbp), %eax
	cmpl	-12(%rbp), %eax
	jnb	.L31
	movl	-4(%rbp), %eax
	addl	$2, %eax
	jmp	.L29
.L31:
	movl	16(%rbp), %eax
	cmpl	-16(%rbp), %eax
	jnb	.L32
	movl	-4(%rbp), %eax
	addl	$3, %eax
	jmp	.L29
.L32:
	movl	16(%rbp), %eax
	movl	$0, %edx
	divl	-16(%rbp)
	movl	%eax, 16(%rbp)
	addl	$4, -4(%rbp)
	jmp	.L33
.L29:
	addq	$16, %rsp
	popq	%rbp
	ret
	.seh_endproc
	.section	.text$_ZNSt15_Rb_tree_headerC2Ev,"x"
	.linkonce discard
	.align 2
	.globl	_ZNSt15_Rb_tree_headerC2Ev
	.def	_ZNSt15_Rb_tree_headerC2Ev;	.scl	2;	.type	32;	.endef
	.seh_proc	_ZNSt15_Rb_tree_headerC2Ev
_ZNSt15_Rb_tree_headerC2Ev:
.LFB2664:
	pushq	%rbp
	.seh_pushreg	%rbp
	movq	%rsp, %rbp
	.seh_setframe	%rbp, 0
	subq	$32, %rsp
	.seh_stackalloc	32
	.seh_endprologue
	movq	%rcx, 16(%rbp)
	movq	16(%rbp), %rax
	movl	$0, (%rax)
	movq	16(%rbp), %rax
	movq	%rax, %rcx
	call	_ZNSt15_Rb_tree_header8_M_resetEv
	nop
	addq	$32, %rsp
	popq	%rbp
	ret
	.seh_endproc
	.section	.text$_ZNSt15_Rb_tree_header8_M_resetEv,"x"
	.linkonce discard
	.align 2
	.globl	_ZNSt15_Rb_tree_header8_M_resetEv
	.def	_ZNSt15_Rb_tree_header8_M_resetEv;	.scl	2;	.type	32;	.endef
	.seh_proc	_ZNSt15_Rb_tree_header8_M_resetEv
_ZNSt15_Rb_tree_header8_M_resetEv:
.LFB2670:
	pushq	%rbp
	.seh_pushreg	%rbp
	movq	%rsp, %rbp
	.seh_setframe	%rbp, 0
	.seh_endprologue
	movq	%rcx, 16(%rbp)
	movq	16(%rbp), %rax
	movq	$0, 8(%rax)
	movq	16(%rbp), %rdx
	movq	16(%rbp), %rax
	movq	%rdx, 16(%rax)
	movq	16(%rbp), %rdx
	movq	16(%rbp), %rax
	movq	%rdx, 24(%rax)
	movq	16(%rbp), %rax
	movq	$0, 32(%rax)
	nop
	popq	%rbp
	ret
	.seh_endproc
	.section	.text$_ZNSt8__detail15_Hash_node_baseC2Ev,"x"
	.linkonce discard
	.align 2
	.globl	_ZNSt8__detail15_Hash_node_baseC2Ev
	.def	_ZNSt8__detail15_Hash_node_baseC2Ev;	.scl	2;	.type	32;	.endef
	.seh_proc	_ZNSt8__detail15_Hash_node_baseC2Ev
_ZNSt8__detail15_Hash_node_baseC2Ev:
.LFB3234:
	pushq	%rbp
	.seh_pushreg	%rbp
	movq	%rsp, %rbp
	.seh_setframe	%rbp, 0
	.seh_endprologue
	movq	%rcx, 16(%rbp)
	movq	16(%rbp), %rax
	movq	$0, (%rax)
	nop
	popq	%rbp
	ret
	.seh_endproc
	.section	.text$_ZNSt8__detail15_Hash_node_baseC1Ev,"x"
	.linkonce discard
	.align 2
	.globl	_ZNSt8__detail15_Hash_node_baseC1Ev
	.def	_ZNSt8__detail15_Hash_node_baseC1Ev;	.scl	2;	.type	32;	.endef
	.seh_proc	_ZNSt8__detail15_Hash_node_baseC1Ev
_ZNSt8__detail15_Hash_node_baseC1Ev:
.LFB3235:
	pushq	%rbp
	.seh_pushreg	%rbp
	movq	%rsp, %rbp
	.seh_setframe	%rbp, 0
	.seh_endprologue
	movq	%rcx, 16(%rbp)
	movq	16(%rbp), %rax
	movq	$0, (%rax)
	nop
	popq	%rbp
	ret
	.seh_endproc
	.section	.text$_ZNKSt8__detail18_Mod_range_hashingclEyy,"x"
	.linkonce discard
	.align 2
	.globl	_ZNKSt8__detail18_Mod_range_hashingclEyy
	.def	_ZNKSt8__detail18_Mod_range_hashingclEyy;	.scl	2;	.type	32;	.endef
	.seh_proc	_ZNKSt8__detail18_Mod_range_hashingclEyy
_ZNKSt8__detail18_Mod_range_hashingclEyy:
.LFB3260:
	pushq	%rbp
	.seh_pushreg	%rbp
	movq	%rsp, %rbp
	.seh_setframe	%rbp, 0
	.seh_endprologue
	movq	%rcx, 16(%rbp)
	movq	%rdx, 24(%rbp)
	movq	%r8, 32(%rbp)
	movq	24(%rbp), %rax
	movl	$0, %edx
	divq	32(%rbp)
	movq	%rdx, %rax
	popq	%rbp
	ret
	.seh_endproc
	.section	.text$_ZNSt8__detail20_Prime_rehash_policyC1Ef,"x"
	.linkonce discard
	.align 2
	.globl	_ZNSt8__detail20_Prime_rehash_policyC1Ef
	.def	_ZNSt8__detail20_Prime_rehash_policyC1Ef;	.scl	2;	.type	32;	.endef
	.seh_proc	_ZNSt8__detail20_Prime_rehash_policyC1Ef
_ZNSt8__detail20_Prime_rehash_policyC1Ef:
.LFB3263:
	pushq	%rbp
	.seh_pushreg	%rbp
	movq	%rsp, %rbp
	.seh_setframe	%rbp, 0
	.seh_endprologue
	movq	%rcx, 16(%rbp)
	movss	%xmm1, 24(%rbp)
	movq	16(%rbp), %rax
	movss	24(%rbp), %xmm0
	movss	%xmm0, (%rax)
	movq	16(%rbp), %rax
	movq	$0, 8(%rax)
	nop
	popq	%rbp
	ret
	.seh_endproc
	.section	.text$_ZNKSt8__detail20_Prime_rehash_policy8_M_stateEv,"x"
	.linkonce discard
	.align 2
	.globl	_ZNKSt8__detail20_Prime_rehash_policy8_M_stateEv
	.def	_ZNKSt8__detail20_Prime_rehash_policy8_M_stateEv;	.scl	2;	.type	32;	.endef
	.seh_proc	_ZNKSt8__detail20_Prime_rehash_policy8_M_stateEv
_ZNKSt8__detail20_Prime_rehash_policy8_M_stateEv:
.LFB3266:
	pushq	%rbp
	.seh_pushreg	%rbp
	movq	%rsp, %rbp
	.seh_setframe	%rbp, 0
	.seh_endprologue
	movq	%rcx, 16(%rbp)
	movq	16(%rbp), %rax
	movq	8(%rax), %rax
	popq	%rbp
	ret
	.seh_endproc
	.section	.text$_ZNSt8__detail20_Prime_rehash_policy8_M_resetEy,"x"
	.linkonce discard
	.align 2
	.globl	_ZNSt8__detail20_Prime_rehash_policy8_M_resetEy
	.def	_ZNSt8__detail20_Prime_rehash_policy8_M_resetEy;	.scl	2;	.type	32;	.endef
	.seh_proc	_ZNSt8__detail20_Prime_rehash_policy8_M_resetEy
_ZNSt8__detail20_Prime_rehash_policy8_M_resetEy:
.LFB3268:
	pushq	%rbp
	.seh_pushreg	%rbp
	movq	%rsp, %rbp
	.seh_setframe	%rbp, 0
	.seh_endprologue
	movq	%rcx, 16(%rbp)
	movq	%rdx, 24(%rbp)
	movq	16(%rbp), %rax
	movq	24(%rbp), %rdx
	movq	%rdx, 8(%rax)
	nop
	popq	%rbp
	ret
	.seh_endproc
	.section	.text$_ZSt3minIyERKT_S2_S2_,"x"
	.linkonce discard
	.globl	_ZSt3minIyERKT_S2_S2_
	.def	_ZSt3minIyERKT_S2_S2_;	.scl	2;	.type	32;	.endef
	.seh_proc	_ZSt3minIyERKT_S2_S2_
_ZSt3minIyERKT_S2_S2_:
.LFB3276:
	pushq	%rbp
	.seh_pushreg	%rbp
	movq	%rsp, %rbp
	.seh_setframe	%rbp, 0
	.seh_endprologue
	movq	%rcx, 16(%rbp)
	movq	%rdx, 24(%rbp)
	movq	24(%rbp), %rax
	movq	(%rax), %rdx
	movq	16(%rbp), %rax
	movq	(%rax), %rax
	cmpq	%rax, %rdx
	jnb	.L45
	movq	24(%rbp), %rax
	jmp	.L46
.L45:
	movq	16(%rbp), %rax
.L46:
	popq	%rbp
	ret
	.seh_endproc
	.section	.text$_ZN5TokenC1E9TokenTypeRKNSt7__cxx1112basic_stringIcSt11char_traitsIcESaIcEEEi,"x"
	.linkonce discard
	.align 2
	.globl	_ZN5TokenC1E9TokenTypeRKNSt7__cxx1112basic_stringIcSt11char_traitsIcESaIcEEEi
	.def	_ZN5TokenC1E9TokenTypeRKNSt7__cxx1112basic_stringIcSt11char_traitsIcESaIcEEEi;	.scl	2;	.type	32;	.endef
	.seh_proc	_ZN5TokenC1E9TokenTypeRKNSt7__cxx1112basic_stringIcSt11char_traitsIcESaIcEEEi
_ZN5TokenC1E9TokenTypeRKNSt7__cxx1112basic_stringIcSt11char_traitsIcESaIcEEEi:
.LFB3666:
	pushq	%rbp
	.seh_pushreg	%rbp
	movq	%rsp, %rbp
	.seh_setframe	%rbp, 0
	subq	$32, %rsp
	.seh_stackalloc	32
	.seh_endprologue
	movq	%rcx, 16(%rbp)
	movl	%edx, 24(%rbp)
	movq	%r8, 32(%rbp)
	movl	%r9d, 40(%rbp)
	movq	16(%rbp), %rax
	movl	24(%rbp), %edx
	movl	%edx, (%rax)
	movq	16(%rbp), %rax
	leaq	8(%rax), %rcx
	movq	32(%rbp), %rax
	movq	%rax, %rdx
	call	_ZNSt7__cxx1112basic_stringIcSt11char_traitsIcESaIcEEC1ERKS4_
	movq	16(%rbp), %rax
	movl	40(%rbp), %edx
	movl	%edx, 40(%rax)
	nop
	addq	$32, %rsp
	popq	%rbp
	ret
	.seh_endproc
	.section	.text$_ZN5LexerC1ERKNSt7__cxx1112basic_stringIcSt11char_traitsIcESaIcEEE,"x"
	.linkonce discard
	.align 2
	.globl	_ZN5LexerC1ERKNSt7__cxx1112basic_stringIcSt11char_traitsIcESaIcEEE
	.def	_ZN5LexerC1ERKNSt7__cxx1112basic_stringIcSt11char_traitsIcESaIcEEE;	.scl	2;	.type	32;	.endef
	.seh_proc	_ZN5LexerC1ERKNSt7__cxx1112basic_stringIcSt11char_traitsIcESaIcEEE
_ZN5LexerC1ERKNSt7__cxx1112basic_stringIcSt11char_traitsIcESaIcEEE:
.LFB3669:
	pushq	%rbp
	.seh_pushreg	%rbp
	pushq	%rbx
	.seh_pushreg	%rbx
	subq	$40, %rsp
	.seh_stackalloc	40
	leaq	32(%rsp), %rbp
	.seh_setframe	%rbp, 32
	.seh_endprologue
	movq	%rcx, 32(%rbp)
	movq	%rdx, 40(%rbp)
	movq	32(%rbp), %rax
	movq	%rax, %rcx
	call	_ZNSt7__cxx1112basic_stringIcSt11char_traitsIcESaIcEEC1Ev
	movq	32(%rbp), %rax
	movq	40(%rbp), %rdx
	movq	%rax, %rcx
.LEHB0:
	call	_ZNSt7__cxx1112basic_stringIcSt11char_traitsIcESaIcEEaSERKS4_
.LEHE0:
	movq	32(%rbp), %rax
	movq	$0, 32(%rax)
	movq	32(%rbp), %rax
	movl	$1, 40(%rax)
	jmp	.L51
.L50:
	movq	%rax, %rbx
	movq	32(%rbp), %rax
	movq	%rax, %rcx
	call	_ZNSt7__cxx1112basic_stringIcSt11char_traitsIcESaIcEED1Ev
	movq	%rbx, %rax
	movq	%rax, %rcx
.LEHB1:
	call	_Unwind_Resume
	nop
.LEHE1:
.L51:
	addq	$40, %rsp
	popq	%rbx
	popq	%rbp
	ret
	.seh_handler	__gxx_personality_seh0, @unwind, @except
	.seh_handlerdata
.LLSDA3669:
	.byte	0xff
	.byte	0xff
	.byte	0x1
	.uleb128 .LLSDACSE3669-.LLSDACSB3669
.LLSDACSB3669:
	.uleb128 .LEHB0-.LFB3669
	.uleb128 .LEHE0-.LEHB0
	.uleb128 .L50-.LFB3669
	.uleb128 0
	.uleb128 .LEHB1-.LFB3669
	.uleb128 .LEHE1-.LEHB1
	.uleb128 0
	.uleb128 0
.LLSDACSE3669:
	.section	.text$_ZN5LexerC1ERKNSt7__cxx1112basic_stringIcSt11char_traitsIcESaIcEEE,"x"
	.linkonce discard
	.seh_endproc
	.section	.text$_ZNSt12_Vector_baseI5TokenSaIS0_EE12_Vector_implD1Ev,"x"
	.linkonce discard
	.align 2
	.globl	_ZNSt12_Vector_baseI5TokenSaIS0_EE12_Vector_implD1Ev
	.def	_ZNSt12_Vector_baseI5TokenSaIS0_EE12_Vector_implD1Ev;	.scl	2;	.type	32;	.endef
	.seh_proc	_ZNSt12_Vector_baseI5TokenSaIS0_EE12_Vector_implD1Ev
_ZNSt12_Vector_baseI5TokenSaIS0_EE12_Vector_implD1Ev:
.LFB3676:
	pushq	%rbp
	.seh_pushreg	%rbp
	movq	%rsp, %rbp
	.seh_setframe	%rbp, 0
	subq	$48, %rsp
	.seh_stackalloc	48
	.seh_endprologue
	movq	%rcx, 16(%rbp)
	movq	16(%rbp), %rax
	movq	%rax, -8(%rbp)
	movq	-8(%rbp), %rax
	movq	%rax, %rcx
	call	_ZNSt15__new_allocatorI5TokenED2Ev
	nop
	nop
	addq	$48, %rsp
	popq	%rbp
	ret
	.seh_endproc
	.section	.text$_ZNSt12_Vector_baseI5TokenSaIS0_EEC2Ev,"x"
	.linkonce discard
	.align 2
	.globl	_ZNSt12_Vector_baseI5TokenSaIS0_EEC2Ev
	.def	_ZNSt12_Vector_baseI5TokenSaIS0_EEC2Ev;	.scl	2;	.type	32;	.endef
	.seh_proc	_ZNSt12_Vector_baseI5TokenSaIS0_EEC2Ev
_ZNSt12_Vector_baseI5TokenSaIS0_EEC2Ev:
.LFB3677:
	pushq	%rbp
	.seh_pushreg	%rbp
	movq	%rsp, %rbp
	.seh_setframe	%rbp, 0
	subq	$32, %rsp
	.seh_stackalloc	32
	.seh_endprologue
	movq	%rcx, 16(%rbp)
	movq	16(%rbp), %rax
	movq	%rax, %rcx
	call	_ZNSt12_Vector_baseI5TokenSaIS0_EE12_Vector_implC1Ev
	nop
	addq	$32, %rsp
	popq	%rbp
	ret
	.seh_endproc
	.section	.text$_ZNSt6vectorI5TokenSaIS0_EEC1Ev,"x"
	.linkonce discard
	.align 2
	.globl	_ZNSt6vectorI5TokenSaIS0_EEC1Ev
	.def	_ZNSt6vectorI5TokenSaIS0_EEC1Ev;	.scl	2;	.type	32;	.endef
	.seh_proc	_ZNSt6vectorI5TokenSaIS0_EEC1Ev
_ZNSt6vectorI5TokenSaIS0_EEC1Ev:
.LFB3680:
	pushq	%rbp
	.seh_pushreg	%rbp
	movq	%rsp, %rbp
	.seh_setframe	%rbp, 0
	subq	$32, %rsp
	.seh_stackalloc	32
	.seh_endprologue
	movq	%rcx, 16(%rbp)
	movq	16(%rbp), %rax
	movq	%rax, %rcx
	call	_ZNSt12_Vector_baseI5TokenSaIS0_EEC2Ev
	nop
	addq	$32, %rsp
	popq	%rbp
	ret
	.seh_endproc
	.section	.text$_ZN5TokenD1Ev,"x"
	.linkonce discard
	.align 2
	.globl	_ZN5TokenD1Ev
	.def	_ZN5TokenD1Ev;	.scl	2;	.type	32;	.endef
	.seh_proc	_ZN5TokenD1Ev
_ZN5TokenD1Ev:
.LFB3683:
	pushq	%rbp
	.seh_pushreg	%rbp
	movq	%rsp, %rbp
	.seh_setframe	%rbp, 0
	subq	$32, %rsp
	.seh_stackalloc	32
	.seh_endprologue
	movq	%rcx, 16(%rbp)
	movq	16(%rbp), %rax
	addq	$8, %rax
	movq	%rax, %rcx
	call	_ZNSt7__cxx1112basic_stringIcSt11char_traitsIcESaIcEED1Ev
	nop
	addq	$32, %rsp
	popq	%rbp
	ret
	.seh_endproc
	.section .rdata,"dr"
.LC0:
	.ascii "int\0"
.LC1:
	.ascii "float\0"
.LC2:
	.ascii "double\0"
.LC3:
	.ascii "string\0"
.LC4:
	.ascii "bool\0"
.LC5:
	.ascii "true\0"
.LC6:
	.ascii "false\0"
.LC7:
	.ascii "char\0"
.LC8:
	.ascii "if\0"
.LC9:
	.ascii "else\0"
.LC10:
	.ascii "return\0"
.LC11:
	.ascii "while\0"
.LC12:
	.ascii "for\0"
.LC13:
	.ascii "switch\0"
.LC14:
	.ascii "case\0"
.LC15:
	.ascii "break\0"
.LC16:
	.ascii "continue\0"
.LC17:
	.ascii "agar\0"
.LC18:
	.ascii "print\0"
.LC19:
	.ascii "==\0"
.LC20:
	.ascii "=\0"
.LC21:
	.ascii "!=\0"
.LC22:
	.ascii "Unexpected character \0"
.LC23:
	.ascii " at line \0"
.LC24:
	.ascii "&&\0"
.LC25:
	.ascii "||\0"
.LC26:
	.ascii ">=\0"
.LC27:
	.ascii ">\0"
.LC28:
	.ascii "<=\0"
.LC29:
	.ascii "<\0"
.LC30:
	.ascii "+\0"
.LC31:
	.ascii "-\0"
.LC32:
	.ascii "*\0"
.LC33:
	.ascii "/\0"
.LC34:
	.ascii "(\0"
.LC35:
	.ascii ")\0"
.LC36:
	.ascii "{\0"
.LC37:
	.ascii "}\0"
.LC38:
	.ascii ";\0"
.LC39:
	.ascii ":\0"
.LC40:
	.ascii "\0"
	.section	.text$_ZN5Lexer8tokenizeEv,"x"
	.linkonce discard
	.align 2
	.globl	_ZN5Lexer8tokenizeEv
	.def	_ZN5Lexer8tokenizeEv;	.scl	2;	.type	32;	.endef
	.seh_proc	_ZN5Lexer8tokenizeEv
_ZN5Lexer8tokenizeEv:
.LFB3670:
	pushq	%rbp
	.seh_pushreg	%rbp
	pushq	%rbx
	.seh_pushreg	%rbx
	subq	$3352, %rsp
	.seh_stackalloc	3352
	leaq	128(%rsp), %rbp
	.seh_setframe	%rbp, 128
	.seh_endprologue
	movq	%rcx, 3248(%rbp)
	movq	%rdx, 3256(%rbp)
	movq	3248(%rbp), %rax
	movq	%rax, %rcx
	call	_ZNSt6vectorI5TokenSaIS0_EEC1Ev
	jmp	.L57
.L118:
	movq	3256(%rbp), %rax
	movq	3256(%rbp), %rdx
	movq	32(%rdx), %rdx
	movq	%rax, %rcx
.LEHB2:
	call	_ZNSt7__cxx1112basic_stringIcSt11char_traitsIcESaIcEEixEy
	movzbl	(%rax), %eax
	movb	%al, 3215(%rbp)
	movsbl	3215(%rbp), %eax
	movl	%eax, %ecx
	movq	__imp_isspace(%rip), %rax
	call	*%rax
	testl	%eax, %eax
	je	.L58
	cmpb	$10, 3215(%rbp)
	jne	.L59
	movq	3256(%rbp), %rax
	movl	40(%rax), %eax
	leal	1(%rax), %edx
	movq	3256(%rbp), %rax
	movl	%edx, 40(%rax)
.L59:
	movq	3256(%rbp), %rax
	movq	32(%rax), %rax
	leaq	1(%rax), %rdx
	movq	3256(%rbp), %rax
	movq	%rdx, 32(%rax)
	jmp	.L57
.L58:
	movsbl	3215(%rbp), %eax
	subl	$48, %eax
	cmpl	$9, %eax
	setbe	%al
	movzbl	%al, %eax
	testl	%eax, %eax
	je	.L60
	leaq	-16(%rbp), %rax
	movq	3256(%rbp), %rdx
	movq	%rax, %rcx
	call	_ZN5Lexer13consumeNumberB5cxx11Ev
.LEHE2:
	movq	3256(%rbp), %rax
	movl	40(%rax), %ecx
	leaq	-16(%rbp), %rdx
	leaq	-64(%rbp), %rax
	movl	%ecx, %r9d
	movq	%rdx, %r8
	movl	$9, %edx
	movq	%rax, %rcx
.LEHB3:
	call	_ZN5TokenC1E9TokenTypeRKNSt7__cxx1112basic_stringIcSt11char_traitsIcESaIcEEEi
.LEHE3:
	leaq	-64(%rbp), %rdx
	movq	3248(%rbp), %rax
	movq	%rax, %rcx
.LEHB4:
	call	_ZNSt6vectorI5TokenSaIS0_EE9push_backEOS0_
.LEHE4:
	leaq	-64(%rbp), %rax
	movq	%rax, %rcx
	call	_ZN5TokenD1Ev
	leaq	-16(%rbp), %rax
	movq	%rax, %rcx
	call	_ZNSt7__cxx1112basic_stringIcSt11char_traitsIcESaIcEED1Ev
	jmp	.L57
.L60:
	movsbl	3215(%rbp), %eax
	movl	%eax, %ecx
	movq	__imp_isalpha(%rip), %rax
	call	*%rax
	testl	%eax, %eax
	je	.L61
	leaq	-96(%rbp), %rax
	movq	3256(%rbp), %rdx
	movq	%rax, %rcx
.LEHB5:
	call	_ZN5Lexer11consumeWordB5cxx11Ev
.LEHE5:
	leaq	-96(%rbp), %rax
	leaq	.LC0(%rip), %rdx
	movq	%rax, %rcx
.LEHB6:
	call	_ZSteqIcSt11char_traitsIcESaIcEEbRKNSt7__cxx1112basic_stringIT_T0_T1_EEPKS5_
	testb	%al, %al
	je	.L62
	movq	3256(%rbp), %rax
	movl	40(%rax), %ecx
	leaq	-96(%rbp), %rdx
	leaq	16(%rbp), %rax
	movl	%ecx, %r9d
	movq	%rdx, %r8
	movl	$0, %edx
	movq	%rax, %rcx
	call	_ZN5TokenC1E9TokenTypeRKNSt7__cxx1112basic_stringIcSt11char_traitsIcESaIcEEEi
.LEHE6:
	leaq	16(%rbp), %rdx
	movq	3248(%rbp), %rax
	movq	%rax, %rcx
.LEHB7:
	call	_ZNSt6vectorI5TokenSaIS0_EE9push_backEOS0_
.LEHE7:
	leaq	16(%rbp), %rax
	movq	%rax, %rcx
	call	_ZN5TokenD1Ev
	jmp	.L298
.L62:
	leaq	-96(%rbp), %rax
	leaq	.LC1(%rip), %rdx
	movq	%rax, %rcx
.LEHB8:
	call	_ZSteqIcSt11char_traitsIcESaIcEEbRKNSt7__cxx1112basic_stringIT_T0_T1_EEPKS5_
	testb	%al, %al
	je	.L64
	movq	3256(%rbp), %rax
	movl	40(%rax), %ecx
	leaq	-96(%rbp), %rdx
	leaq	64(%rbp), %rax
	movl	%ecx, %r9d
	movq	%rdx, %r8
	movl	$1, %edx
	movq	%rax, %rcx
	call	_ZN5TokenC1E9TokenTypeRKNSt7__cxx1112basic_stringIcSt11char_traitsIcESaIcEEEi
.LEHE8:
	leaq	64(%rbp), %rdx
	movq	3248(%rbp), %rax
	movq	%rax, %rcx
.LEHB9:
	call	_ZNSt6vectorI5TokenSaIS0_EE9push_backEOS0_
.LEHE9:
	leaq	64(%rbp), %rax
	movq	%rax, %rcx
	call	_ZN5TokenD1Ev
	jmp	.L298
.L64:
	leaq	-96(%rbp), %rax
	leaq	.LC2(%rip), %rdx
	movq	%rax, %rcx
.LEHB10:
	call	_ZSteqIcSt11char_traitsIcESaIcEEbRKNSt7__cxx1112basic_stringIT_T0_T1_EEPKS5_
	testb	%al, %al
	je	.L65
	movq	3256(%rbp), %rax
	movl	40(%rax), %ecx
	leaq	-96(%rbp), %rdx
	leaq	112(%rbp), %rax
	movl	%ecx, %r9d
	movq	%rdx, %r8
	movl	$2, %edx
	movq	%rax, %rcx
	call	_ZN5TokenC1E9TokenTypeRKNSt7__cxx1112basic_stringIcSt11char_traitsIcESaIcEEEi
.LEHE10:
	leaq	112(%rbp), %rdx
	movq	3248(%rbp), %rax
	movq	%rax, %rcx
.LEHB11:
	call	_ZNSt6vectorI5TokenSaIS0_EE9push_backEOS0_
.LEHE11:
	leaq	112(%rbp), %rax
	movq	%rax, %rcx
	call	_ZN5TokenD1Ev
	jmp	.L298
.L65:
	leaq	-96(%rbp), %rax
	leaq	.LC3(%rip), %rdx
	movq	%rax, %rcx
.LEHB12:
	call	_ZSteqIcSt11char_traitsIcESaIcEEbRKNSt7__cxx1112basic_stringIT_T0_T1_EEPKS5_
	testb	%al, %al
	je	.L66
	movq	3256(%rbp), %rax
	movl	40(%rax), %ecx
	leaq	-96(%rbp), %rdx
	leaq	160(%rbp), %rax
	movl	%ecx, %r9d
	movq	%rdx, %r8
	movl	$3, %edx
	movq	%rax, %rcx
	call	_ZN5TokenC1E9TokenTypeRKNSt7__cxx1112basic_stringIcSt11char_traitsIcESaIcEEEi
.LEHE12:
	leaq	160(%rbp), %rdx
	movq	3248(%rbp), %rax
	movq	%rax, %rcx
.LEHB13:
	call	_ZNSt6vectorI5TokenSaIS0_EE9push_backEOS0_
.LEHE13:
	leaq	160(%rbp), %rax
	movq	%rax, %rcx
	call	_ZN5TokenD1Ev
	jmp	.L298
.L66:
	leaq	-96(%rbp), %rax
	leaq	.LC4(%rip), %rdx
	movq	%rax, %rcx
.LEHB14:
	call	_ZSteqIcSt11char_traitsIcESaIcEEbRKNSt7__cxx1112basic_stringIT_T0_T1_EEPKS5_
	testb	%al, %al
	je	.L67
	movq	3256(%rbp), %rax
	movl	40(%rax), %ecx
	leaq	-96(%rbp), %rdx
	leaq	208(%rbp), %rax
	movl	%ecx, %r9d
	movq	%rdx, %r8
	movl	$4, %edx
	movq	%rax, %rcx
	call	_ZN5TokenC1E9TokenTypeRKNSt7__cxx1112basic_stringIcSt11char_traitsIcESaIcEEEi
.LEHE14:
	leaq	208(%rbp), %rdx
	movq	3248(%rbp), %rax
	movq	%rax, %rcx
.LEHB15:
	call	_ZNSt6vectorI5TokenSaIS0_EE9push_backEOS0_
.LEHE15:
	leaq	208(%rbp), %rax
	movq	%rax, %rcx
	call	_ZN5TokenD1Ev
	jmp	.L298
.L67:
	leaq	-96(%rbp), %rax
	leaq	.LC5(%rip), %rdx
	movq	%rax, %rcx
.LEHB16:
	call	_ZSteqIcSt11char_traitsIcESaIcEEbRKNSt7__cxx1112basic_stringIT_T0_T1_EEPKS5_
	testb	%al, %al
	je	.L68
	movq	3256(%rbp), %rax
	movl	40(%rax), %ecx
	leaq	-96(%rbp), %rdx
	leaq	256(%rbp), %rax
	movl	%ecx, %r9d
	movq	%rdx, %r8
	movl	$6, %edx
	movq	%rax, %rcx
	call	_ZN5TokenC1E9TokenTypeRKNSt7__cxx1112basic_stringIcSt11char_traitsIcESaIcEEEi
.LEHE16:
	leaq	256(%rbp), %rdx
	movq	3248(%rbp), %rax
	movq	%rax, %rcx
.LEHB17:
	call	_ZNSt6vectorI5TokenSaIS0_EE9push_backEOS0_
.LEHE17:
	leaq	256(%rbp), %rax
	movq	%rax, %rcx
	call	_ZN5TokenD1Ev
	jmp	.L298
.L68:
	leaq	-96(%rbp), %rax
	leaq	.LC6(%rip), %rdx
	movq	%rax, %rcx
.LEHB18:
	call	_ZSteqIcSt11char_traitsIcESaIcEEbRKNSt7__cxx1112basic_stringIT_T0_T1_EEPKS5_
	testb	%al, %al
	je	.L69
	movq	3256(%rbp), %rax
	movl	40(%rax), %ecx
	leaq	-96(%rbp), %rdx
	leaq	304(%rbp), %rax
	movl	%ecx, %r9d
	movq	%rdx, %r8
	movl	$7, %edx
	movq	%rax, %rcx
	call	_ZN5TokenC1E9TokenTypeRKNSt7__cxx1112basic_stringIcSt11char_traitsIcESaIcEEEi
.LEHE18:
	leaq	304(%rbp), %rdx
	movq	3248(%rbp), %rax
	movq	%rax, %rcx
.LEHB19:
	call	_ZNSt6vectorI5TokenSaIS0_EE9push_backEOS0_
.LEHE19:
	leaq	304(%rbp), %rax
	movq	%rax, %rcx
	call	_ZN5TokenD1Ev
	jmp	.L298
.L69:
	leaq	-96(%rbp), %rax
	leaq	.LC7(%rip), %rdx
	movq	%rax, %rcx
.LEHB20:
	call	_ZSteqIcSt11char_traitsIcESaIcEEbRKNSt7__cxx1112basic_stringIT_T0_T1_EEPKS5_
	testb	%al, %al
	je	.L70
	movq	3256(%rbp), %rax
	movl	40(%rax), %ecx
	leaq	-96(%rbp), %rdx
	leaq	352(%rbp), %rax
	movl	%ecx, %r9d
	movq	%rdx, %r8
	movl	$5, %edx
	movq	%rax, %rcx
	call	_ZN5TokenC1E9TokenTypeRKNSt7__cxx1112basic_stringIcSt11char_traitsIcESaIcEEEi
.LEHE20:
	leaq	352(%rbp), %rdx
	movq	3248(%rbp), %rax
	movq	%rax, %rcx
.LEHB21:
	call	_ZNSt6vectorI5TokenSaIS0_EE9push_backEOS0_
.LEHE21:
	leaq	352(%rbp), %rax
	movq	%rax, %rcx
	call	_ZN5TokenD1Ev
	jmp	.L298
.L70:
	leaq	-96(%rbp), %rax
	leaq	.LC8(%rip), %rdx
	movq	%rax, %rcx
.LEHB22:
	call	_ZSteqIcSt11char_traitsIcESaIcEEbRKNSt7__cxx1112basic_stringIT_T0_T1_EEPKS5_
	testb	%al, %al
	je	.L71
	movq	3256(%rbp), %rax
	movl	40(%rax), %ecx
	leaq	-96(%rbp), %rdx
	leaq	400(%rbp), %rax
	movl	%ecx, %r9d
	movq	%rdx, %r8
	movl	$10, %edx
	movq	%rax, %rcx
	call	_ZN5TokenC1E9TokenTypeRKNSt7__cxx1112basic_stringIcSt11char_traitsIcESaIcEEEi
.LEHE22:
	leaq	400(%rbp), %rdx
	movq	3248(%rbp), %rax
	movq	%rax, %rcx
.LEHB23:
	call	_ZNSt6vectorI5TokenSaIS0_EE9push_backEOS0_
.LEHE23:
	leaq	400(%rbp), %rax
	movq	%rax, %rcx
	call	_ZN5TokenD1Ev
	jmp	.L298
.L71:
	leaq	-96(%rbp), %rax
	leaq	.LC9(%rip), %rdx
	movq	%rax, %rcx
.LEHB24:
	call	_ZSteqIcSt11char_traitsIcESaIcEEbRKNSt7__cxx1112basic_stringIT_T0_T1_EEPKS5_
	testb	%al, %al
	je	.L72
	movq	3256(%rbp), %rax
	movl	40(%rax), %ecx
	leaq	-96(%rbp), %rdx
	leaq	448(%rbp), %rax
	movl	%ecx, %r9d
	movq	%rdx, %r8
	movl	$11, %edx
	movq	%rax, %rcx
	call	_ZN5TokenC1E9TokenTypeRKNSt7__cxx1112basic_stringIcSt11char_traitsIcESaIcEEEi
.LEHE24:
	leaq	448(%rbp), %rdx
	movq	3248(%rbp), %rax
	movq	%rax, %rcx
.LEHB25:
	call	_ZNSt6vectorI5TokenSaIS0_EE9push_backEOS0_
.LEHE25:
	leaq	448(%rbp), %rax
	movq	%rax, %rcx
	call	_ZN5TokenD1Ev
	jmp	.L298
.L72:
	leaq	-96(%rbp), %rax
	leaq	.LC10(%rip), %rdx
	movq	%rax, %rcx
.LEHB26:
	call	_ZSteqIcSt11char_traitsIcESaIcEEbRKNSt7__cxx1112basic_stringIT_T0_T1_EEPKS5_
	testb	%al, %al
	je	.L73
	movq	3256(%rbp), %rax
	movl	40(%rax), %ecx
	leaq	-96(%rbp), %rdx
	leaq	496(%rbp), %rax
	movl	%ecx, %r9d
	movq	%rdx, %r8
	movl	$12, %edx
	movq	%rax, %rcx
	call	_ZN5TokenC1E9TokenTypeRKNSt7__cxx1112basic_stringIcSt11char_traitsIcESaIcEEEi
.LEHE26:
	leaq	496(%rbp), %rdx
	movq	3248(%rbp), %rax
	movq	%rax, %rcx
.LEHB27:
	call	_ZNSt6vectorI5TokenSaIS0_EE9push_backEOS0_
.LEHE27:
	leaq	496(%rbp), %rax
	movq	%rax, %rcx
	call	_ZN5TokenD1Ev
	jmp	.L298
.L73:
	leaq	-96(%rbp), %rax
	leaq	.LC11(%rip), %rdx
	movq	%rax, %rcx
.LEHB28:
	call	_ZSteqIcSt11char_traitsIcESaIcEEbRKNSt7__cxx1112basic_stringIT_T0_T1_EEPKS5_
	testb	%al, %al
	je	.L74
	movq	3256(%rbp), %rax
	movl	40(%rax), %ecx
	leaq	-96(%rbp), %rdx
	leaq	544(%rbp), %rax
	movl	%ecx, %r9d
	movq	%rdx, %r8
	movl	$13, %edx
	movq	%rax, %rcx
	call	_ZN5TokenC1E9TokenTypeRKNSt7__cxx1112basic_stringIcSt11char_traitsIcESaIcEEEi
.LEHE28:
	leaq	544(%rbp), %rdx
	movq	3248(%rbp), %rax
	movq	%rax, %rcx
.LEHB29:
	call	_ZNSt6vectorI5TokenSaIS0_EE9push_backEOS0_
.LEHE29:
	leaq	544(%rbp), %rax
	movq	%rax, %rcx
	call	_ZN5TokenD1Ev
	jmp	.L298
.L74:
	leaq	-96(%rbp), %rax
	leaq	.LC12(%rip), %rdx
	movq	%rax, %rcx
.LEHB30:
	call	_ZSteqIcSt11char_traitsIcESaIcEEbRKNSt7__cxx1112basic_stringIT_T0_T1_EEPKS5_
	testb	%al, %al
	je	.L75
	movq	3256(%rbp), %rax
	movl	40(%rax), %ecx
	leaq	-96(%rbp), %rdx
	leaq	592(%rbp), %rax
	movl	%ecx, %r9d
	movq	%rdx, %r8
	movl	$14, %edx
	movq	%rax, %rcx
	call	_ZN5TokenC1E9TokenTypeRKNSt7__cxx1112basic_stringIcSt11char_traitsIcESaIcEEEi
.LEHE30:
	leaq	592(%rbp), %rdx
	movq	3248(%rbp), %rax
	movq	%rax, %rcx
.LEHB31:
	call	_ZNSt6vectorI5TokenSaIS0_EE9push_backEOS0_
.LEHE31:
	leaq	592(%rbp), %rax
	movq	%rax, %rcx
	call	_ZN5TokenD1Ev
	jmp	.L298
.L75:
	leaq	-96(%rbp), %rax
	leaq	.LC13(%rip), %rdx
	movq	%rax, %rcx
.LEHB32:
	call	_ZSteqIcSt11char_traitsIcESaIcEEbRKNSt7__cxx1112basic_stringIT_T0_T1_EEPKS5_
	testb	%al, %al
	je	.L76
	movq	3256(%rbp), %rax
	movl	40(%rax), %ecx
	leaq	-96(%rbp), %rdx
	leaq	640(%rbp), %rax
	movl	%ecx, %r9d
	movq	%rdx, %r8
	movl	$15, %edx
	movq	%rax, %rcx
	call	_ZN5TokenC1E9TokenTypeRKNSt7__cxx1112basic_stringIcSt11char_traitsIcESaIcEEEi
.LEHE32:
	leaq	640(%rbp), %rdx
	movq	3248(%rbp), %rax
	movq	%rax, %rcx
.LEHB33:
	call	_ZNSt6vectorI5TokenSaIS0_EE9push_backEOS0_
.LEHE33:
	leaq	640(%rbp), %rax
	movq	%rax, %rcx
	call	_ZN5TokenD1Ev
	jmp	.L298
.L76:
	leaq	-96(%rbp), %rax
	leaq	.LC14(%rip), %rdx
	movq	%rax, %rcx
.LEHB34:
	call	_ZSteqIcSt11char_traitsIcESaIcEEbRKNSt7__cxx1112basic_stringIT_T0_T1_EEPKS5_
	testb	%al, %al
	je	.L77
	movq	3256(%rbp), %rax
	movl	40(%rax), %ecx
	leaq	-96(%rbp), %rdx
	leaq	688(%rbp), %rax
	movl	%ecx, %r9d
	movq	%rdx, %r8
	movl	$16, %edx
	movq	%rax, %rcx
	call	_ZN5TokenC1E9TokenTypeRKNSt7__cxx1112basic_stringIcSt11char_traitsIcESaIcEEEi
.LEHE34:
	leaq	688(%rbp), %rdx
	movq	3248(%rbp), %rax
	movq	%rax, %rcx
.LEHB35:
	call	_ZNSt6vectorI5TokenSaIS0_EE9push_backEOS0_
.LEHE35:
	leaq	688(%rbp), %rax
	movq	%rax, %rcx
	call	_ZN5TokenD1Ev
	jmp	.L298
.L77:
	leaq	-96(%rbp), %rax
	leaq	.LC15(%rip), %rdx
	movq	%rax, %rcx
.LEHB36:
	call	_ZSteqIcSt11char_traitsIcESaIcEEbRKNSt7__cxx1112basic_stringIT_T0_T1_EEPKS5_
	testb	%al, %al
	je	.L78
	movq	3256(%rbp), %rax
	movl	40(%rax), %ecx
	leaq	-96(%rbp), %rdx
	leaq	736(%rbp), %rax
	movl	%ecx, %r9d
	movq	%rdx, %r8
	movl	$17, %edx
	movq	%rax, %rcx
	call	_ZN5TokenC1E9TokenTypeRKNSt7__cxx1112basic_stringIcSt11char_traitsIcESaIcEEEi
.LEHE36:
	leaq	736(%rbp), %rdx
	movq	3248(%rbp), %rax
	movq	%rax, %rcx
.LEHB37:
	call	_ZNSt6vectorI5TokenSaIS0_EE9push_backEOS0_
.LEHE37:
	leaq	736(%rbp), %rax
	movq	%rax, %rcx
	call	_ZN5TokenD1Ev
	jmp	.L298
.L78:
	leaq	-96(%rbp), %rax
	leaq	.LC16(%rip), %rdx
	movq	%rax, %rcx
.LEHB38:
	call	_ZSteqIcSt11char_traitsIcESaIcEEbRKNSt7__cxx1112basic_stringIT_T0_T1_EEPKS5_
	testb	%al, %al
	je	.L79
	movq	3256(%rbp), %rax
	movl	40(%rax), %ecx
	leaq	-96(%rbp), %rdx
	leaq	784(%rbp), %rax
	movl	%ecx, %r9d
	movq	%rdx, %r8
	movl	$18, %edx
	movq	%rax, %rcx
	call	_ZN5TokenC1E9TokenTypeRKNSt7__cxx1112basic_stringIcSt11char_traitsIcESaIcEEEi
.LEHE38:
	leaq	784(%rbp), %rdx
	movq	3248(%rbp), %rax
	movq	%rax, %rcx
.LEHB39:
	call	_ZNSt6vectorI5TokenSaIS0_EE9push_backEOS0_
.LEHE39:
	leaq	784(%rbp), %rax
	movq	%rax, %rcx
	call	_ZN5TokenD1Ev
	jmp	.L298
.L79:
	leaq	-96(%rbp), %rax
	leaq	.LC17(%rip), %rdx
	movq	%rax, %rcx
.LEHB40:
	call	_ZSteqIcSt11char_traitsIcESaIcEEbRKNSt7__cxx1112basic_stringIT_T0_T1_EEPKS5_
	testb	%al, %al
	je	.L80
	movq	3256(%rbp), %rax
	movl	40(%rax), %ecx
	leaq	-96(%rbp), %rdx
	leaq	832(%rbp), %rax
	movl	%ecx, %r9d
	movq	%rdx, %r8
	movl	$39, %edx
	movq	%rax, %rcx
	call	_ZN5TokenC1E9TokenTypeRKNSt7__cxx1112basic_stringIcSt11char_traitsIcESaIcEEEi
.LEHE40:
	leaq	832(%rbp), %rdx
	movq	3248(%rbp), %rax
	movq	%rax, %rcx
.LEHB41:
	call	_ZNSt6vectorI5TokenSaIS0_EE9push_backEOS0_
.LEHE41:
	leaq	832(%rbp), %rax
	movq	%rax, %rcx
	call	_ZN5TokenD1Ev
	jmp	.L298
.L80:
	leaq	-96(%rbp), %rax
	leaq	.LC18(%rip), %rdx
	movq	%rax, %rcx
.LEHB42:
	call	_ZSteqIcSt11char_traitsIcESaIcEEbRKNSt7__cxx1112basic_stringIT_T0_T1_EEPKS5_
	testb	%al, %al
	je	.L81
	movq	3256(%rbp), %rax
	movl	40(%rax), %ecx
	leaq	-96(%rbp), %rdx
	leaq	880(%rbp), %rax
	movl	%ecx, %r9d
	movq	%rdx, %r8
	movl	$40, %edx
	movq	%rax, %rcx
	call	_ZN5TokenC1E9TokenTypeRKNSt7__cxx1112basic_stringIcSt11char_traitsIcESaIcEEEi
.LEHE42:
	leaq	880(%rbp), %rdx
	movq	3248(%rbp), %rax
	movq	%rax, %rcx
.LEHB43:
	call	_ZNSt6vectorI5TokenSaIS0_EE9push_backEOS0_
.LEHE43:
	leaq	880(%rbp), %rax
	movq	%rax, %rcx
	call	_ZN5TokenD1Ev
	jmp	.L298
.L81:
	movq	3256(%rbp), %rax
	movl	40(%rax), %ecx
	leaq	-96(%rbp), %rdx
	leaq	928(%rbp), %rax
	movl	%ecx, %r9d
	movq	%rdx, %r8
	movl	$8, %edx
	movq	%rax, %rcx
.LEHB44:
	call	_ZN5TokenC1E9TokenTypeRKNSt7__cxx1112basic_stringIcSt11char_traitsIcESaIcEEEi
.LEHE44:
	leaq	928(%rbp), %rdx
	movq	3248(%rbp), %rax
	movq	%rax, %rcx
.LEHB45:
	call	_ZNSt6vectorI5TokenSaIS0_EE9push_backEOS0_
.LEHE45:
	leaq	928(%rbp), %rax
	movq	%rax, %rcx
	call	_ZN5TokenD1Ev
.L298:
	nop
	leaq	-96(%rbp), %rax
	movq	%rax, %rcx
	call	_ZNSt7__cxx1112basic_stringIcSt11char_traitsIcESaIcEED1Ev
	jmp	.L57
.L61:
	cmpb	$34, 3215(%rbp)
	jne	.L82
	leaq	1024(%rbp), %rax
	movq	3256(%rbp), %rdx
	movq	%rax, %rcx
.LEHB46:
	call	_ZN5Lexer20consumeStringLiteralB5cxx11Ev
.LEHE46:
	movq	3256(%rbp), %rax
	movl	40(%rax), %ecx
	leaq	1024(%rbp), %rdx
	leaq	976(%rbp), %rax
	movl	%ecx, %r9d
	movq	%rdx, %r8
	movl	$3, %edx
	movq	%rax, %rcx
.LEHB47:
	call	_ZN5TokenC1E9TokenTypeRKNSt7__cxx1112basic_stringIcSt11char_traitsIcESaIcEEEi
.LEHE47:
	leaq	976(%rbp), %rdx
	movq	3248(%rbp), %rax
	movq	%rax, %rcx
.LEHB48:
	call	_ZNSt6vectorI5TokenSaIS0_EE9push_backEOS0_
.LEHE48:
	leaq	976(%rbp), %rax
	movq	%rax, %rcx
	call	_ZN5TokenD1Ev
	leaq	1024(%rbp), %rax
	movq	%rax, %rcx
	call	_ZNSt7__cxx1112basic_stringIcSt11char_traitsIcESaIcEED1Ev
	jmp	.L57
.L82:
	cmpb	$39, 3215(%rbp)
	jne	.L83
	leaq	1104(%rbp), %rax
	movq	3256(%rbp), %rdx
	movq	%rax, %rcx
.LEHB49:
	call	_ZN5Lexer18consumeCharLiteralB5cxx11Ev
.LEHE49:
	movq	3256(%rbp), %rax
	movl	40(%rax), %ecx
	leaq	1104(%rbp), %rdx
	leaq	1056(%rbp), %rax
	movl	%ecx, %r9d
	movq	%rdx, %r8
	movl	$5, %edx
	movq	%rax, %rcx
.LEHB50:
	call	_ZN5TokenC1E9TokenTypeRKNSt7__cxx1112basic_stringIcSt11char_traitsIcESaIcEEEi
.LEHE50:
	leaq	1056(%rbp), %rdx
	movq	3248(%rbp), %rax
	movq	%rax, %rcx
.LEHB51:
	call	_ZNSt6vectorI5TokenSaIS0_EE9push_backEOS0_
.LEHE51:
	leaq	1056(%rbp), %rax
	movq	%rax, %rcx
	call	_ZN5TokenD1Ev
	leaq	1104(%rbp), %rax
	movq	%rax, %rcx
	call	_ZNSt7__cxx1112basic_stringIcSt11char_traitsIcESaIcEED1Ev
	jmp	.L57
.L83:
	cmpb	$47, 3215(%rbp)
	jne	.L84
	movq	3256(%rbp), %rax
	movq	%rax, %rcx
.LEHB52:
	call	_ZN5Lexer8peekNextEv
	cmpb	$47, %al
	jne	.L84
	movl	$1, %eax
	jmp	.L85
.L84:
	movl	$0, %eax
.L85:
	testb	%al, %al
	je	.L86
	movq	3256(%rbp), %rax
	movq	%rax, %rcx
	call	_ZN5Lexer14consumeCommentEv
	jmp	.L57
.L86:
	movsbl	3215(%rbp), %eax
	subl	$33, %eax
	cmpl	$92, %eax
	ja	.L87
	movl	%eax, %eax
	leaq	0(,%rax,4), %rdx
	leaq	.L89(%rip), %rax
	movl	(%rdx,%rax), %eax
	cltq
	leaq	.L89(%rip), %rdx
	addq	%rdx, %rax
	jmp	*%rax
	.section .rdata,"dr"
	.align 4
.L89:
	.long	.L104-.L89
	.long	.L87-.L89
	.long	.L87-.L89
	.long	.L87-.L89
	.long	.L87-.L89
	.long	.L103-.L89
	.long	.L87-.L89
	.long	.L102-.L89
	.long	.L101-.L89
	.long	.L100-.L89
	.long	.L99-.L89
	.long	.L87-.L89
	.long	.L98-.L89
	.long	.L87-.L89
	.long	.L97-.L89
	.long	.L87-.L89
	.long	.L87-.L89
	.long	.L87-.L89
	.long	.L87-.L89
	.long	.L87-.L89
	.long	.L87-.L89
	.long	.L87-.L89
	.long	.L87-.L89
	.long	.L87-.L89
	.long	.L87-.L89
	.long	.L96-.L89
	.long	.L95-.L89
	.long	.L94-.L89
	.long	.L93-.L89
	.long	.L92-.L89
	.long	.L87-.L89
	.long	.L87-.L89
	.long	.L87-.L89
	.long	.L87-.L89
	.long	.L87-.L89
	.long	.L87-.L89
	.long	.L87-.L89
	.long	.L87-.L89
	.long	.L87-.L89
	.long	.L87-.L89
	.long	.L87-.L89
	.long	.L87-.L89
	.long	.L87-.L89
	.long	.L87-.L89
	.long	.L87-.L89
	.long	.L87-.L89
	.long	.L87-.L89
	.long	.L87-.L89
	.long	.L87-.L89
	.long	.L87-.L89
	.long	.L87-.L89
	.long	.L87-.L89
	.long	.L87-.L89
	.long	.L87-.L89
	.long	.L87-.L89
	.long	.L87-.L89
	.long	.L87-.L89
	.long	.L87-.L89
	.long	.L87-.L89
	.long	.L87-.L89
	.long	.L87-.L89
	.long	.L87-.L89
	.long	.L87-.L89
	.long	.L87-.L89
	.long	.L87-.L89
	.long	.L87-.L89
	.long	.L87-.L89
	.long	.L87-.L89
	.long	.L87-.L89
	.long	.L87-.L89
	.long	.L87-.L89
	.long	.L87-.L89
	.long	.L87-.L89
	.long	.L87-.L89
	.long	.L87-.L89
	.long	.L87-.L89
	.long	.L87-.L89
	.long	.L87-.L89
	.long	.L87-.L89
	.long	.L87-.L89
	.long	.L87-.L89
	.long	.L87-.L89
	.long	.L87-.L89
	.long	.L87-.L89
	.long	.L87-.L89
	.long	.L87-.L89
	.long	.L87-.L89
	.long	.L87-.L89
	.long	.L87-.L89
	.long	.L87-.L89
	.long	.L91-.L89
	.long	.L90-.L89
	.long	.L88-.L89
	.section	.text$_ZN5Lexer8tokenizeEv,"x"
	.linkonce discard
.L93:
	movq	3256(%rbp), %rax
	movq	%rax, %rcx
	call	_ZN5Lexer8peekNextEv
.LEHE52:
	cmpb	$61, %al
	sete	%al
	testb	%al, %al
	je	.L105
	movq	3256(%rbp), %rax
	movq	32(%rax), %rax
	leaq	1(%rax), %rdx
	movq	3256(%rbp), %rax
	movq	%rdx, 32(%rax)
	leaq	1231(%rbp), %rax
	movq	%rax, 3200(%rbp)
	nop
	nop
	leaq	1231(%rbp), %rdx
	leaq	1184(%rbp), %rax
	movq	%rdx, %r8
	leaq	.LC19(%rip), %rdx
	movq	%rax, %rcx
.LEHB53:
	call	_ZNSt7__cxx1112basic_stringIcSt11char_traitsIcESaIcEEC1IS3_EEPKcRKS3_
.LEHE53:
	movq	3256(%rbp), %rax
	movl	40(%rax), %ecx
	leaq	1184(%rbp), %rdx
	leaq	1136(%rbp), %rax
	movl	%ecx, %r9d
	movq	%rdx, %r8
	movl	$24, %edx
	movq	%rax, %rcx
.LEHB54:
	call	_ZN5TokenC1E9TokenTypeRKNSt7__cxx1112basic_stringIcSt11char_traitsIcESaIcEEEi
.LEHE54:
	leaq	1136(%rbp), %rdx
	movq	3248(%rbp), %rax
	movq	%rax, %rcx
.LEHB55:
	call	_ZNSt6vectorI5TokenSaIS0_EE9push_backEOS0_
.LEHE55:
	leaq	1136(%rbp), %rax
	movq	%rax, %rcx
	call	_ZN5TokenD1Ev
	leaq	1184(%rbp), %rax
	movq	%rax, %rcx
	call	_ZNSt7__cxx1112basic_stringIcSt11char_traitsIcESaIcEED1Ev
	leaq	1231(%rbp), %rax
	movq	%rax, %rcx
	call	_ZNSt15__new_allocatorIcED2Ev
	jmp	.L106
.L105:
	leaq	1327(%rbp), %rax
	movq	%rax, 3192(%rbp)
	nop
	nop
	leaq	1327(%rbp), %rdx
	leaq	1280(%rbp), %rax
	movq	%rdx, %r8
	leaq	.LC20(%rip), %rdx
	movq	%rax, %rcx
.LEHB56:
	call	_ZNSt7__cxx1112basic_stringIcSt11char_traitsIcESaIcEEC1IS3_EEPKcRKS3_
.LEHE56:
	movq	3256(%rbp), %rax
	movl	40(%rax), %ecx
	leaq	1280(%rbp), %rdx
	leaq	1232(%rbp), %rax
	movl	%ecx, %r9d
	movq	%rdx, %r8
	movl	$19, %edx
	movq	%rax, %rcx
.LEHB57:
	call	_ZN5TokenC1E9TokenTypeRKNSt7__cxx1112basic_stringIcSt11char_traitsIcESaIcEEEi
.LEHE57:
	leaq	1232(%rbp), %rdx
	movq	3248(%rbp), %rax
	movq	%rax, %rcx
.LEHB58:
	call	_ZNSt6vectorI5TokenSaIS0_EE9push_backEOS0_
.LEHE58:
	leaq	1232(%rbp), %rax
	movq	%rax, %rcx
	call	_ZN5TokenD1Ev
	leaq	1280(%rbp), %rax
	movq	%rax, %rcx
	call	_ZNSt7__cxx1112basic_stringIcSt11char_traitsIcESaIcEED1Ev
	leaq	1327(%rbp), %rax
	movq	%rax, %rcx
	call	_ZNSt15__new_allocatorIcED2Ev
	nop
.L106:
	jmp	.L107
.L104:
	movq	3256(%rbp), %rax
	movq	%rax, %rcx
.LEHB59:
	call	_ZN5Lexer8peekNextEv
.LEHE59:
	cmpb	$61, %al
	sete	%al
	testb	%al, %al
	je	.L108
	movq	3256(%rbp), %rax
	movq	32(%rax), %rax
	leaq	1(%rax), %rdx
	movq	3256(%rbp), %rax
	movq	%rdx, 32(%rax)
	leaq	1423(%rbp), %rax
	movq	%rax, 3184(%rbp)
	nop
	nop
	leaq	1423(%rbp), %rdx
	leaq	1376(%rbp), %rax
	movq	%rdx, %r8
	leaq	.LC21(%rip), %rdx
	movq	%rax, %rcx
.LEHB60:
	call	_ZNSt7__cxx1112basic_stringIcSt11char_traitsIcESaIcEEC1IS3_EEPKcRKS3_
.LEHE60:
	movq	3256(%rbp), %rax
	movl	40(%rax), %ecx
	leaq	1376(%rbp), %rdx
	leaq	1328(%rbp), %rax
	movl	%ecx, %r9d
	movq	%rdx, %r8
	movl	$25, %edx
	movq	%rax, %rcx
.LEHB61:
	call	_ZN5TokenC1E9TokenTypeRKNSt7__cxx1112basic_stringIcSt11char_traitsIcESaIcEEEi
.LEHE61:
	leaq	1328(%rbp), %rdx
	movq	3248(%rbp), %rax
	movq	%rax, %rcx
.LEHB62:
	call	_ZNSt6vectorI5TokenSaIS0_EE9push_backEOS0_
.LEHE62:
	leaq	1328(%rbp), %rax
	movq	%rax, %rcx
	call	_ZN5TokenD1Ev
	leaq	1376(%rbp), %rax
	movq	%rax, %rcx
	call	_ZNSt7__cxx1112basic_stringIcSt11char_traitsIcESaIcEED1Ev
	leaq	1423(%rbp), %rax
	movq	%rax, %rcx
	call	_ZNSt15__new_allocatorIcED2Ev
	nop
	jmp	.L107
.L108:
	leaq	.LC22(%rip), %rax
	movq	%rax, %rdx
	movq	.refptr._ZSt4cout(%rip), %rax
	movq	%rax, %rcx
.LEHB63:
	call	_ZStlsISt11char_traitsIcEERSt13basic_ostreamIcT_ES5_PKc
	movq	%rax, %rcx
	movsbl	3215(%rbp), %eax
	movl	%eax, %edx
	call	_ZStlsISt11char_traitsIcEERSt13basic_ostreamIcT_ES5_c
	movq	%rax, %rcx
	leaq	.LC23(%rip), %rax
	movq	%rax, %rdx
	call	_ZStlsISt11char_traitsIcEERSt13basic_ostreamIcT_ES5_PKc
	movq	%rax, %rcx
	movq	3256(%rbp), %rax
	movl	40(%rax), %eax
	movl	%eax, %edx
	call	_ZNSolsEi
	movq	%rax, %rcx
	movq	.refptr._ZSt4endlIcSt11char_traitsIcEERSt13basic_ostreamIT_T0_ES6_(%rip), %rax
	movq	%rax, %rdx
	call	_ZNSolsEPFRSoS_E
	movl	$1, %ecx
	call	exit
.L103:
	movq	3256(%rbp), %rax
	movq	%rax, %rcx
	call	_ZN5Lexer8peekNextEv
.LEHE63:
	cmpb	$38, %al
	sete	%al
	testb	%al, %al
	je	.L110
	movq	3256(%rbp), %rax
	movq	32(%rax), %rax
	leaq	1(%rax), %rdx
	movq	3256(%rbp), %rax
	movq	%rdx, 32(%rax)
	leaq	1519(%rbp), %rax
	movq	%rax, 3176(%rbp)
	nop
	nop
	leaq	1519(%rbp), %rdx
	leaq	1472(%rbp), %rax
	movq	%rdx, %r8
	leaq	.LC24(%rip), %rdx
	movq	%rax, %rcx
.LEHB64:
	call	_ZNSt7__cxx1112basic_stringIcSt11char_traitsIcESaIcEEC1IS3_EEPKcRKS3_
.LEHE64:
	movq	3256(%rbp), %rax
	movl	40(%rax), %ecx
	leaq	1472(%rbp), %rdx
	leaq	1424(%rbp), %rax
	movl	%ecx, %r9d
	movq	%rdx, %r8
	movl	$30, %edx
	movq	%rax, %rcx
.LEHB65:
	call	_ZN5TokenC1E9TokenTypeRKNSt7__cxx1112basic_stringIcSt11char_traitsIcESaIcEEEi
.LEHE65:
	leaq	1424(%rbp), %rdx
	movq	3248(%rbp), %rax
	movq	%rax, %rcx
.LEHB66:
	call	_ZNSt6vectorI5TokenSaIS0_EE9push_backEOS0_
.LEHE66:
	leaq	1424(%rbp), %rax
	movq	%rax, %rcx
	call	_ZN5TokenD1Ev
	leaq	1472(%rbp), %rax
	movq	%rax, %rcx
	call	_ZNSt7__cxx1112basic_stringIcSt11char_traitsIcESaIcEED1Ev
	leaq	1519(%rbp), %rax
	movq	%rax, %rcx
	call	_ZNSt15__new_allocatorIcED2Ev
	nop
	jmp	.L107
.L110:
	leaq	.LC22(%rip), %rax
	movq	%rax, %rdx
	movq	.refptr._ZSt4cout(%rip), %rax
	movq	%rax, %rcx
.LEHB67:
	call	_ZStlsISt11char_traitsIcEERSt13basic_ostreamIcT_ES5_PKc
	movq	%rax, %rcx
	movsbl	3215(%rbp), %eax
	movl	%eax, %edx
	call	_ZStlsISt11char_traitsIcEERSt13basic_ostreamIcT_ES5_c
	movq	%rax, %rcx
	leaq	.LC23(%rip), %rax
	movq	%rax, %rdx
	call	_ZStlsISt11char_traitsIcEERSt13basic_ostreamIcT_ES5_PKc
	movq	%rax, %rcx
	movq	3256(%rbp), %rax
	movl	40(%rax), %eax
	movl	%eax, %edx
	call	_ZNSolsEi
	movq	%rax, %rcx
	movq	.refptr._ZSt4endlIcSt11char_traitsIcEERSt13basic_ostreamIT_T0_ES6_(%rip), %rax
	movq	%rax, %rdx
	call	_ZNSolsEPFRSoS_E
	movl	$1, %ecx
	call	exit
.L90:
	movq	3256(%rbp), %rax
	movq	%rax, %rcx
	call	_ZN5Lexer8peekNextEv
.LEHE67:
	cmpb	$124, %al
	sete	%al
	testb	%al, %al
	je	.L112
	movq	3256(%rbp), %rax
	movq	32(%rax), %rax
	leaq	1(%rax), %rdx
	movq	3256(%rbp), %rax
	movq	%rdx, 32(%rax)
	leaq	1615(%rbp), %rax
	movq	%rax, 3168(%rbp)
	nop
	nop
	leaq	1615(%rbp), %rdx
	leaq	1568(%rbp), %rax
	movq	%rdx, %r8
	leaq	.LC25(%rip), %rdx
	movq	%rax, %rcx
.LEHB68:
	call	_ZNSt7__cxx1112basic_stringIcSt11char_traitsIcESaIcEEC1IS3_EEPKcRKS3_
.LEHE68:
	movq	3256(%rbp), %rax
	movl	40(%rax), %ecx
	leaq	1568(%rbp), %rdx
	leaq	1520(%rbp), %rax
	movl	%ecx, %r9d
	movq	%rdx, %r8
	movl	$31, %edx
	movq	%rax, %rcx
.LEHB69:
	call	_ZN5TokenC1E9TokenTypeRKNSt7__cxx1112basic_stringIcSt11char_traitsIcESaIcEEEi
.LEHE69:
	leaq	1520(%rbp), %rdx
	movq	3248(%rbp), %rax
	movq	%rax, %rcx
.LEHB70:
	call	_ZNSt6vectorI5TokenSaIS0_EE9push_backEOS0_
.LEHE70:
	leaq	1520(%rbp), %rax
	movq	%rax, %rcx
	call	_ZN5TokenD1Ev
	leaq	1568(%rbp), %rax
	movq	%rax, %rcx
	call	_ZNSt7__cxx1112basic_stringIcSt11char_traitsIcESaIcEED1Ev
	leaq	1615(%rbp), %rax
	movq	%rax, %rcx
	call	_ZNSt15__new_allocatorIcED2Ev
	nop
	jmp	.L107
.L112:
	leaq	.LC22(%rip), %rax
	movq	%rax, %rdx
	movq	.refptr._ZSt4cout(%rip), %rax
	movq	%rax, %rcx
.LEHB71:
	call	_ZStlsISt11char_traitsIcEERSt13basic_ostreamIcT_ES5_PKc
	movq	%rax, %rcx
	movsbl	3215(%rbp), %eax
	movl	%eax, %edx
	call	_ZStlsISt11char_traitsIcEERSt13basic_ostreamIcT_ES5_c
	movq	%rax, %rcx
	leaq	.LC23(%rip), %rax
	movq	%rax, %rdx
	call	_ZStlsISt11char_traitsIcEERSt13basic_ostreamIcT_ES5_PKc
	movq	%rax, %rcx
	movq	3256(%rbp), %rax
	movl	40(%rax), %eax
	movl	%eax, %edx
	call	_ZNSolsEi
	movq	%rax, %rcx
	movq	.refptr._ZSt4endlIcSt11char_traitsIcEERSt13basic_ostreamIT_T0_ES6_(%rip), %rax
	movq	%rax, %rdx
	call	_ZNSolsEPFRSoS_E
	movl	$1, %ecx
	call	exit
.L92:
	movq	3256(%rbp), %rax
	movq	%rax, %rcx
	call	_ZN5Lexer8peekNextEv
.LEHE71:
	cmpb	$61, %al
	sete	%al
	testb	%al, %al
	je	.L114
	movq	3256(%rbp), %rax
	movq	32(%rax), %rax
	leaq	1(%rax), %rdx
	movq	3256(%rbp), %rax
	movq	%rdx, 32(%rax)
	leaq	1711(%rbp), %rax
	movq	%rax, 3160(%rbp)
	nop
	nop
	leaq	1711(%rbp), %rdx
	leaq	1664(%rbp), %rax
	movq	%rdx, %r8
	leaq	.LC26(%rip), %rdx
	movq	%rax, %rcx
.LEHB72:
	call	_ZNSt7__cxx1112basic_stringIcSt11char_traitsIcESaIcEEC1IS3_EEPKcRKS3_
.LEHE72:
	movq	3256(%rbp), %rax
	movl	40(%rax), %ecx
	leaq	1664(%rbp), %rdx
	leaq	1616(%rbp), %rax
	movl	%ecx, %r9d
	movq	%rdx, %r8
	movl	$28, %edx
	movq	%rax, %rcx
.LEHB73:
	call	_ZN5TokenC1E9TokenTypeRKNSt7__cxx1112basic_stringIcSt11char_traitsIcESaIcEEEi
.LEHE73:
	leaq	1616(%rbp), %rdx
	movq	3248(%rbp), %rax
	movq	%rax, %rcx
.LEHB74:
	call	_ZNSt6vectorI5TokenSaIS0_EE9push_backEOS0_
.LEHE74:
	leaq	1616(%rbp), %rax
	movq	%rax, %rcx
	call	_ZN5TokenD1Ev
	leaq	1664(%rbp), %rax
	movq	%rax, %rcx
	call	_ZNSt7__cxx1112basic_stringIcSt11char_traitsIcESaIcEED1Ev
	leaq	1711(%rbp), %rax
	movq	%rax, %rcx
	call	_ZNSt15__new_allocatorIcED2Ev
	jmp	.L115
.L114:
	leaq	1807(%rbp), %rax
	movq	%rax, 3152(%rbp)
	nop
	nop
	leaq	1807(%rbp), %rdx
	leaq	1760(%rbp), %rax
	movq	%rdx, %r8
	leaq	.LC27(%rip), %rdx
	movq	%rax, %rcx
.LEHB75:
	call	_ZNSt7__cxx1112basic_stringIcSt11char_traitsIcESaIcEEC1IS3_EEPKcRKS3_
.LEHE75:
	movq	3256(%rbp), %rax
	movl	40(%rax), %ecx
	leaq	1760(%rbp), %rdx
	leaq	1712(%rbp), %rax
	movl	%ecx, %r9d
	movq	%rdx, %r8
	movl	$26, %edx
	movq	%rax, %rcx
.LEHB76:
	call	_ZN5TokenC1E9TokenTypeRKNSt7__cxx1112basic_stringIcSt11char_traitsIcESaIcEEEi
.LEHE76:
	leaq	1712(%rbp), %rdx
	movq	3248(%rbp), %rax
	movq	%rax, %rcx
.LEHB77:
	call	_ZNSt6vectorI5TokenSaIS0_EE9push_backEOS0_
.LEHE77:
	leaq	1712(%rbp), %rax
	movq	%rax, %rcx
	call	_ZN5TokenD1Ev
	leaq	1760(%rbp), %rax
	movq	%rax, %rcx
	call	_ZNSt7__cxx1112basic_stringIcSt11char_traitsIcESaIcEED1Ev
	leaq	1807(%rbp), %rax
	movq	%rax, %rcx
	call	_ZNSt15__new_allocatorIcED2Ev
	nop
.L115:
	jmp	.L107
.L94:
	movq	3256(%rbp), %rax
	movq	%rax, %rcx
.LEHB78:
	call	_ZN5Lexer8peekNextEv
.LEHE78:
	cmpb	$61, %al
	sete	%al
	testb	%al, %al
	je	.L116
	movq	3256(%rbp), %rax
	movq	32(%rax), %rax
	leaq	1(%rax), %rdx
	movq	3256(%rbp), %rax
	movq	%rdx, 32(%rax)
	leaq	1903(%rbp), %rax
	movq	%rax, 3144(%rbp)
	nop
	nop
	leaq	1903(%rbp), %rdx
	leaq	1856(%rbp), %rax
	movq	%rdx, %r8
	leaq	.LC28(%rip), %rdx
	movq	%rax, %rcx
.LEHB79:
	call	_ZNSt7__cxx1112basic_stringIcSt11char_traitsIcESaIcEEC1IS3_EEPKcRKS3_
.LEHE79:
	movq	3256(%rbp), %rax
	movl	40(%rax), %ecx
	leaq	1856(%rbp), %rdx
	leaq	1808(%rbp), %rax
	movl	%ecx, %r9d
	movq	%rdx, %r8
	movl	$29, %edx
	movq	%rax, %rcx
.LEHB80:
	call	_ZN5TokenC1E9TokenTypeRKNSt7__cxx1112basic_stringIcSt11char_traitsIcESaIcEEEi
.LEHE80:
	leaq	1808(%rbp), %rdx
	movq	3248(%rbp), %rax
	movq	%rax, %rcx
.LEHB81:
	call	_ZNSt6vectorI5TokenSaIS0_EE9push_backEOS0_
.LEHE81:
	leaq	1808(%rbp), %rax
	movq	%rax, %rcx
	call	_ZN5TokenD1Ev
	leaq	1856(%rbp), %rax
	movq	%rax, %rcx
	call	_ZNSt7__cxx1112basic_stringIcSt11char_traitsIcESaIcEED1Ev
	leaq	1903(%rbp), %rax
	movq	%rax, %rcx
	call	_ZNSt15__new_allocatorIcED2Ev
	jmp	.L117
.L116:
	leaq	1999(%rbp), %rax
	movq	%rax, 3136(%rbp)
	nop
	nop
	leaq	1999(%rbp), %rdx
	leaq	1952(%rbp), %rax
	movq	%rdx, %r8
	leaq	.LC29(%rip), %rdx
	movq	%rax, %rcx
.LEHB82:
	call	_ZNSt7__cxx1112basic_stringIcSt11char_traitsIcESaIcEEC1IS3_EEPKcRKS3_
.LEHE82:
	movq	3256(%rbp), %rax
	movl	40(%rax), %ecx
	leaq	1952(%rbp), %rdx
	leaq	1904(%rbp), %rax
	movl	%ecx, %r9d
	movq	%rdx, %r8
	movl	$27, %edx
	movq	%rax, %rcx
.LEHB83:
	call	_ZN5TokenC1E9TokenTypeRKNSt7__cxx1112basic_stringIcSt11char_traitsIcESaIcEEEi
.LEHE83:
	leaq	1904(%rbp), %rdx
	movq	3248(%rbp), %rax
	movq	%rax, %rcx
.LEHB84:
	call	_ZNSt6vectorI5TokenSaIS0_EE9push_backEOS0_
.LEHE84:
	leaq	1904(%rbp), %rax
	movq	%rax, %rcx
	call	_ZN5TokenD1Ev
	leaq	1952(%rbp), %rax
	movq	%rax, %rcx
	call	_ZNSt7__cxx1112basic_stringIcSt11char_traitsIcESaIcEED1Ev
	leaq	1999(%rbp), %rax
	movq	%rax, %rcx
	call	_ZNSt15__new_allocatorIcED2Ev
	nop
.L117:
	jmp	.L107
.L99:
	leaq	2095(%rbp), %rax
	movq	%rax, 3128(%rbp)
	nop
	nop
	leaq	2095(%rbp), %rdx
	leaq	2048(%rbp), %rax
	movq	%rdx, %r8
	leaq	.LC30(%rip), %rdx
	movq	%rax, %rcx
.LEHB85:
	call	_ZNSt7__cxx1112basic_stringIcSt11char_traitsIcESaIcEEC1IS3_EEPKcRKS3_
.LEHE85:
	movq	3256(%rbp), %rax
	movl	40(%rax), %ecx
	leaq	2048(%rbp), %rdx
	leaq	2000(%rbp), %rax
	movl	%ecx, %r9d
	movq	%rdx, %r8
	movl	$20, %edx
	movq	%rax, %rcx
.LEHB86:
	call	_ZN5TokenC1E9TokenTypeRKNSt7__cxx1112basic_stringIcSt11char_traitsIcESaIcEEEi
.LEHE86:
	leaq	2000(%rbp), %rdx
	movq	3248(%rbp), %rax
	movq	%rax, %rcx
.LEHB87:
	call	_ZNSt6vectorI5TokenSaIS0_EE9push_backEOS0_
.LEHE87:
	leaq	2000(%rbp), %rax
	movq	%rax, %rcx
	call	_ZN5TokenD1Ev
	leaq	2048(%rbp), %rax
	movq	%rax, %rcx
	call	_ZNSt7__cxx1112basic_stringIcSt11char_traitsIcESaIcEED1Ev
	leaq	2095(%rbp), %rax
	movq	%rax, %rcx
	call	_ZNSt15__new_allocatorIcED2Ev
	nop
	jmp	.L107
.L98:
	leaq	2191(%rbp), %rax
	movq	%rax, 3120(%rbp)
	nop
	nop
	leaq	2191(%rbp), %rdx
	leaq	2144(%rbp), %rax
	movq	%rdx, %r8
	leaq	.LC31(%rip), %rdx
	movq	%rax, %rcx
.LEHB88:
	call	_ZNSt7__cxx1112basic_stringIcSt11char_traitsIcESaIcEEC1IS3_EEPKcRKS3_
.LEHE88:
	movq	3256(%rbp), %rax
	movl	40(%rax), %ecx
	leaq	2144(%rbp), %rdx
	leaq	2096(%rbp), %rax
	movl	%ecx, %r9d
	movq	%rdx, %r8
	movl	$21, %edx
	movq	%rax, %rcx
.LEHB89:
	call	_ZN5TokenC1E9TokenTypeRKNSt7__cxx1112basic_stringIcSt11char_traitsIcESaIcEEEi
.LEHE89:
	leaq	2096(%rbp), %rdx
	movq	3248(%rbp), %rax
	movq	%rax, %rcx
.LEHB90:
	call	_ZNSt6vectorI5TokenSaIS0_EE9push_backEOS0_
.LEHE90:
	leaq	2096(%rbp), %rax
	movq	%rax, %rcx
	call	_ZN5TokenD1Ev
	leaq	2144(%rbp), %rax
	movq	%rax, %rcx
	call	_ZNSt7__cxx1112basic_stringIcSt11char_traitsIcESaIcEED1Ev
	leaq	2191(%rbp), %rax
	movq	%rax, %rcx
	call	_ZNSt15__new_allocatorIcED2Ev
	nop
	jmp	.L107
.L100:
	leaq	2287(%rbp), %rax
	movq	%rax, 3112(%rbp)
	nop
	nop
	leaq	2287(%rbp), %rdx
	leaq	2240(%rbp), %rax
	movq	%rdx, %r8
	leaq	.LC32(%rip), %rdx
	movq	%rax, %rcx
.LEHB91:
	call	_ZNSt7__cxx1112basic_stringIcSt11char_traitsIcESaIcEEC1IS3_EEPKcRKS3_
.LEHE91:
	movq	3256(%rbp), %rax
	movl	40(%rax), %ecx
	leaq	2240(%rbp), %rdx
	leaq	2192(%rbp), %rax
	movl	%ecx, %r9d
	movq	%rdx, %r8
	movl	$22, %edx
	movq	%rax, %rcx
.LEHB92:
	call	_ZN5TokenC1E9TokenTypeRKNSt7__cxx1112basic_stringIcSt11char_traitsIcESaIcEEEi
.LEHE92:
	leaq	2192(%rbp), %rdx
	movq	3248(%rbp), %rax
	movq	%rax, %rcx
.LEHB93:
	call	_ZNSt6vectorI5TokenSaIS0_EE9push_backEOS0_
.LEHE93:
	leaq	2192(%rbp), %rax
	movq	%rax, %rcx
	call	_ZN5TokenD1Ev
	leaq	2240(%rbp), %rax
	movq	%rax, %rcx
	call	_ZNSt7__cxx1112basic_stringIcSt11char_traitsIcESaIcEED1Ev
	leaq	2287(%rbp), %rax
	movq	%rax, %rcx
	call	_ZNSt15__new_allocatorIcED2Ev
	nop
	jmp	.L107
.L97:
	leaq	2383(%rbp), %rax
	movq	%rax, 3104(%rbp)
	nop
	nop
	leaq	2383(%rbp), %rdx
	leaq	2336(%rbp), %rax
	movq	%rdx, %r8
	leaq	.LC33(%rip), %rdx
	movq	%rax, %rcx
.LEHB94:
	call	_ZNSt7__cxx1112basic_stringIcSt11char_traitsIcESaIcEEC1IS3_EEPKcRKS3_
.LEHE94:
	movq	3256(%rbp), %rax
	movl	40(%rax), %ecx
	leaq	2336(%rbp), %rdx
	leaq	2288(%rbp), %rax
	movl	%ecx, %r9d
	movq	%rdx, %r8
	movl	$23, %edx
	movq	%rax, %rcx
.LEHB95:
	call	_ZN5TokenC1E9TokenTypeRKNSt7__cxx1112basic_stringIcSt11char_traitsIcESaIcEEEi
.LEHE95:
	leaq	2288(%rbp), %rdx
	movq	3248(%rbp), %rax
	movq	%rax, %rcx
.LEHB96:
	call	_ZNSt6vectorI5TokenSaIS0_EE9push_backEOS0_
.LEHE96:
	leaq	2288(%rbp), %rax
	movq	%rax, %rcx
	call	_ZN5TokenD1Ev
	leaq	2336(%rbp), %rax
	movq	%rax, %rcx
	call	_ZNSt7__cxx1112basic_stringIcSt11char_traitsIcESaIcEED1Ev
	leaq	2383(%rbp), %rax
	movq	%rax, %rcx
	call	_ZNSt15__new_allocatorIcED2Ev
	nop
	jmp	.L107
.L102:
	leaq	2479(%rbp), %rax
	movq	%rax, 3096(%rbp)
	nop
	nop
	leaq	2479(%rbp), %rdx
	leaq	2432(%rbp), %rax
	movq	%rdx, %r8
	leaq	.LC34(%rip), %rdx
	movq	%rax, %rcx
.LEHB97:
	call	_ZNSt7__cxx1112basic_stringIcSt11char_traitsIcESaIcEEC1IS3_EEPKcRKS3_
.LEHE97:
	movq	3256(%rbp), %rax
	movl	40(%rax), %ecx
	leaq	2432(%rbp), %rdx
	leaq	2384(%rbp), %rax
	movl	%ecx, %r9d
	movq	%rdx, %r8
	movl	$32, %edx
	movq	%rax, %rcx
.LEHB98:
	call	_ZN5TokenC1E9TokenTypeRKNSt7__cxx1112basic_stringIcSt11char_traitsIcESaIcEEEi
.LEHE98:
	leaq	2384(%rbp), %rdx
	movq	3248(%rbp), %rax
	movq	%rax, %rcx
.LEHB99:
	call	_ZNSt6vectorI5TokenSaIS0_EE9push_backEOS0_
.LEHE99:
	leaq	2384(%rbp), %rax
	movq	%rax, %rcx
	call	_ZN5TokenD1Ev
	leaq	2432(%rbp), %rax
	movq	%rax, %rcx
	call	_ZNSt7__cxx1112basic_stringIcSt11char_traitsIcESaIcEED1Ev
	leaq	2479(%rbp), %rax
	movq	%rax, %rcx
	call	_ZNSt15__new_allocatorIcED2Ev
	nop
	jmp	.L107
.L101:
	leaq	2575(%rbp), %rax
	movq	%rax, 3088(%rbp)
	nop
	nop
	leaq	2575(%rbp), %rdx
	leaq	2528(%rbp), %rax
	movq	%rdx, %r8
	leaq	.LC35(%rip), %rdx
	movq	%rax, %rcx
.LEHB100:
	call	_ZNSt7__cxx1112basic_stringIcSt11char_traitsIcESaIcEEC1IS3_EEPKcRKS3_
.LEHE100:
	movq	3256(%rbp), %rax
	movl	40(%rax), %ecx
	leaq	2528(%rbp), %rdx
	leaq	2480(%rbp), %rax
	movl	%ecx, %r9d
	movq	%rdx, %r8
	movl	$33, %edx
	movq	%rax, %rcx
.LEHB101:
	call	_ZN5TokenC1E9TokenTypeRKNSt7__cxx1112basic_stringIcSt11char_traitsIcESaIcEEEi
.LEHE101:
	leaq	2480(%rbp), %rdx
	movq	3248(%rbp), %rax
	movq	%rax, %rcx
.LEHB102:
	call	_ZNSt6vectorI5TokenSaIS0_EE9push_backEOS0_
.LEHE102:
	leaq	2480(%rbp), %rax
	movq	%rax, %rcx
	call	_ZN5TokenD1Ev
	leaq	2528(%rbp), %rax
	movq	%rax, %rcx
	call	_ZNSt7__cxx1112basic_stringIcSt11char_traitsIcESaIcEED1Ev
	leaq	2575(%rbp), %rax
	movq	%rax, %rcx
	call	_ZNSt15__new_allocatorIcED2Ev
	nop
	jmp	.L107
.L91:
	leaq	2671(%rbp), %rax
	movq	%rax, 3080(%rbp)
	nop
	nop
	leaq	2671(%rbp), %rdx
	leaq	2624(%rbp), %rax
	movq	%rdx, %r8
	leaq	.LC36(%rip), %rdx
	movq	%rax, %rcx
.LEHB103:
	call	_ZNSt7__cxx1112basic_stringIcSt11char_traitsIcESaIcEEC1IS3_EEPKcRKS3_
.LEHE103:
	movq	3256(%rbp), %rax
	movl	40(%rax), %ecx
	leaq	2624(%rbp), %rdx
	leaq	2576(%rbp), %rax
	movl	%ecx, %r9d
	movq	%rdx, %r8
	movl	$34, %edx
	movq	%rax, %rcx
.LEHB104:
	call	_ZN5TokenC1E9TokenTypeRKNSt7__cxx1112basic_stringIcSt11char_traitsIcESaIcEEEi
.LEHE104:
	leaq	2576(%rbp), %rdx
	movq	3248(%rbp), %rax
	movq	%rax, %rcx
.LEHB105:
	call	_ZNSt6vectorI5TokenSaIS0_EE9push_backEOS0_
.LEHE105:
	leaq	2576(%rbp), %rax
	movq	%rax, %rcx
	call	_ZN5TokenD1Ev
	leaq	2624(%rbp), %rax
	movq	%rax, %rcx
	call	_ZNSt7__cxx1112basic_stringIcSt11char_traitsIcESaIcEED1Ev
	leaq	2671(%rbp), %rax
	movq	%rax, %rcx
	call	_ZNSt15__new_allocatorIcED2Ev
	nop
	jmp	.L107
.L88:
	leaq	2767(%rbp), %rax
	movq	%rax, 3072(%rbp)
	nop
	nop
	leaq	2767(%rbp), %rdx
	leaq	2720(%rbp), %rax
	movq	%rdx, %r8
	leaq	.LC37(%rip), %rdx
	movq	%rax, %rcx
.LEHB106:
	call	_ZNSt7__cxx1112basic_stringIcSt11char_traitsIcESaIcEEC1IS3_EEPKcRKS3_
.LEHE106:
	movq	3256(%rbp), %rax
	movl	40(%rax), %ecx
	leaq	2720(%rbp), %rdx
	leaq	2672(%rbp), %rax
	movl	%ecx, %r9d
	movq	%rdx, %r8
	movl	$35, %edx
	movq	%rax, %rcx
.LEHB107:
	call	_ZN5TokenC1E9TokenTypeRKNSt7__cxx1112basic_stringIcSt11char_traitsIcESaIcEEEi
.LEHE107:
	leaq	2672(%rbp), %rdx
	movq	3248(%rbp), %rax
	movq	%rax, %rcx
.LEHB108:
	call	_ZNSt6vectorI5TokenSaIS0_EE9push_backEOS0_
.LEHE108:
	leaq	2672(%rbp), %rax
	movq	%rax, %rcx
	call	_ZN5TokenD1Ev
	leaq	2720(%rbp), %rax
	movq	%rax, %rcx
	call	_ZNSt7__cxx1112basic_stringIcSt11char_traitsIcESaIcEED1Ev
	leaq	2767(%rbp), %rax
	movq	%rax, %rcx
	call	_ZNSt15__new_allocatorIcED2Ev
	nop
	jmp	.L107
.L95:
	leaq	2863(%rbp), %rax
	movq	%rax, 3064(%rbp)
	nop
	nop
	leaq	2863(%rbp), %rdx
	leaq	2816(%rbp), %rax
	movq	%rdx, %r8
	leaq	.LC38(%rip), %rdx
	movq	%rax, %rcx
.LEHB109:
	call	_ZNSt7__cxx1112basic_stringIcSt11char_traitsIcESaIcEEC1IS3_EEPKcRKS3_
.LEHE109:
	movq	3256(%rbp), %rax
	movl	40(%rax), %ecx
	leaq	2816(%rbp), %rdx
	leaq	2768(%rbp), %rax
	movl	%ecx, %r9d
	movq	%rdx, %r8
	movl	$36, %edx
	movq	%rax, %rcx
.LEHB110:
	call	_ZN5TokenC1E9TokenTypeRKNSt7__cxx1112basic_stringIcSt11char_traitsIcESaIcEEEi
.LEHE110:
	leaq	2768(%rbp), %rdx
	movq	3248(%rbp), %rax
	movq	%rax, %rcx
.LEHB111:
	call	_ZNSt6vectorI5TokenSaIS0_EE9push_backEOS0_
.LEHE111:
	leaq	2768(%rbp), %rax
	movq	%rax, %rcx
	call	_ZN5TokenD1Ev
	leaq	2816(%rbp), %rax
	movq	%rax, %rcx
	call	_ZNSt7__cxx1112basic_stringIcSt11char_traitsIcESaIcEED1Ev
	leaq	2863(%rbp), %rax
	movq	%rax, %rcx
	call	_ZNSt15__new_allocatorIcED2Ev
	nop
	jmp	.L107
.L96:
	leaq	2959(%rbp), %rax
	movq	%rax, 3056(%rbp)
	nop
	nop
	leaq	2959(%rbp), %rdx
	leaq	2912(%rbp), %rax
	movq	%rdx, %r8
	leaq	.LC39(%rip), %rdx
	movq	%rax, %rcx
.LEHB112:
	call	_ZNSt7__cxx1112basic_stringIcSt11char_traitsIcESaIcEEC1IS3_EEPKcRKS3_
.LEHE112:
	movq	3256(%rbp), %rax
	movl	40(%rax), %ecx
	leaq	2912(%rbp), %rdx
	leaq	2864(%rbp), %rax
	movl	%ecx, %r9d
	movq	%rdx, %r8
	movl	$37, %edx
	movq	%rax, %rcx
.LEHB113:
	call	_ZN5TokenC1E9TokenTypeRKNSt7__cxx1112basic_stringIcSt11char_traitsIcESaIcEEEi
.LEHE113:
	leaq	2864(%rbp), %rdx
	movq	3248(%rbp), %rax
	movq	%rax, %rcx
.LEHB114:
	call	_ZNSt6vectorI5TokenSaIS0_EE9push_backEOS0_
.LEHE114:
	leaq	2864(%rbp), %rax
	movq	%rax, %rcx
	call	_ZN5TokenD1Ev
	leaq	2912(%rbp), %rax
	movq	%rax, %rcx
	call	_ZNSt7__cxx1112basic_stringIcSt11char_traitsIcESaIcEED1Ev
	leaq	2959(%rbp), %rax
	movq	%rax, %rcx
	call	_ZNSt15__new_allocatorIcED2Ev
	nop
	jmp	.L107
.L87:
	leaq	.LC22(%rip), %rax
	movq	%rax, %rdx
	movq	.refptr._ZSt4cout(%rip), %rax
	movq	%rax, %rcx
.LEHB115:
	call	_ZStlsISt11char_traitsIcEERSt13basic_ostreamIcT_ES5_PKc
	movq	%rax, %rcx
	movsbl	3215(%rbp), %eax
	movl	%eax, %edx
	call	_ZStlsISt11char_traitsIcEERSt13basic_ostreamIcT_ES5_c
	movq	%rax, %rcx
	leaq	.LC23(%rip), %rax
	movq	%rax, %rdx
	call	_ZStlsISt11char_traitsIcEERSt13basic_ostreamIcT_ES5_PKc
	movq	%rax, %rcx
	movq	3256(%rbp), %rax
	movl	40(%rax), %eax
	movl	%eax, %edx
	call	_ZNSolsEi
	movq	%rax, %rcx
	movq	.refptr._ZSt4endlIcSt11char_traitsIcEERSt13basic_ostreamIT_T0_ES6_(%rip), %rax
	movq	%rax, %rdx
	call	_ZNSolsEPFRSoS_E
.LEHE115:
	movl	$1, %ecx
	call	exit
.L107:
	movq	3256(%rbp), %rax
	movq	32(%rax), %rax
	leaq	1(%rax), %rdx
	movq	3256(%rbp), %rax
	movq	%rdx, 32(%rax)
.L57:
	movq	3256(%rbp), %rax
	movq	32(%rax), %rbx
	movq	3256(%rbp), %rax
	movq	%rax, %rcx
	call	_ZNKSt7__cxx1112basic_stringIcSt11char_traitsIcESaIcEE4sizeEv
	cmpq	%rax, %rbx
	setb	%al
	testb	%al, %al
	jne	.L118
	leaq	3047(%rbp), %rax
	movq	%rax, 3048(%rbp)
	nop
	nop
	leaq	3047(%rbp), %rdx
	leaq	3008(%rbp), %rax
	movq	%rdx, %r8
	leaq	.LC40(%rip), %rdx
	movq	%rax, %rcx
.LEHB116:
	call	_ZNSt7__cxx1112basic_stringIcSt11char_traitsIcESaIcEEC1IS3_EEPKcRKS3_
.LEHE116:
	movq	3256(%rbp), %rax
	movl	40(%rax), %ecx
	leaq	3008(%rbp), %rdx
	leaq	2960(%rbp), %rax
	movl	%ecx, %r9d
	movq	%rdx, %r8
	movl	$38, %edx
	movq	%rax, %rcx
.LEHB117:
	call	_ZN5TokenC1E9TokenTypeRKNSt7__cxx1112basic_stringIcSt11char_traitsIcESaIcEEEi
.LEHE117:
	leaq	2960(%rbp), %rdx
	movq	3248(%rbp), %rax
	movq	%rax, %rcx
.LEHB118:
	call	_ZNSt6vectorI5TokenSaIS0_EE9push_backEOS0_
.LEHE118:
	leaq	2960(%rbp), %rax
	movq	%rax, %rcx
	call	_ZN5TokenD1Ev
	leaq	3008(%rbp), %rax
	movq	%rax, %rcx
	call	_ZNSt7__cxx1112basic_stringIcSt11char_traitsIcESaIcEED1Ev
	leaq	3047(%rbp), %rax
	movq	%rax, %rcx
	call	_ZNSt15__new_allocatorIcED2Ev
	nop
	jmp	.L297
.L210:
	movq	%rax, %rbx
	leaq	-64(%rbp), %rax
	movq	%rax, %rcx
	call	_ZN5TokenD1Ev
	jmp	.L121
.L209:
	movq	%rax, %rbx
.L121:
	leaq	-16(%rbp), %rax
	movq	%rax, %rcx
	call	_ZNSt7__cxx1112basic_stringIcSt11char_traitsIcESaIcEED1Ev
	jmp	.L122
.L212:
	movq	%rax, %rbx
	leaq	16(%rbp), %rax
	movq	%rax, %rcx
	call	_ZN5TokenD1Ev
	jmp	.L124
.L213:
	movq	%rax, %rbx
	leaq	64(%rbp), %rax
	movq	%rax, %rcx
	call	_ZN5TokenD1Ev
	jmp	.L124
.L214:
	movq	%rax, %rbx
	leaq	112(%rbp), %rax
	movq	%rax, %rcx
	call	_ZN5TokenD1Ev
	jmp	.L124
.L215:
	movq	%rax, %rbx
	leaq	160(%rbp), %rax
	movq	%rax, %rcx
	call	_ZN5TokenD1Ev
	jmp	.L124
.L216:
	movq	%rax, %rbx
	leaq	208(%rbp), %rax
	movq	%rax, %rcx
	call	_ZN5TokenD1Ev
	jmp	.L124
.L217:
	movq	%rax, %rbx
	leaq	256(%rbp), %rax
	movq	%rax, %rcx
	call	_ZN5TokenD1Ev
	jmp	.L124
.L218:
	movq	%rax, %rbx
	leaq	304(%rbp), %rax
	movq	%rax, %rcx
	call	_ZN5TokenD1Ev
	jmp	.L124
.L219:
	movq	%rax, %rbx
	leaq	352(%rbp), %rax
	movq	%rax, %rcx
	call	_ZN5TokenD1Ev
	jmp	.L124
.L220:
	movq	%rax, %rbx
	leaq	400(%rbp), %rax
	movq	%rax, %rcx
	call	_ZN5TokenD1Ev
	jmp	.L124
.L221:
	movq	%rax, %rbx
	leaq	448(%rbp), %rax
	movq	%rax, %rcx
	call	_ZN5TokenD1Ev
	jmp	.L124
.L222:
	movq	%rax, %rbx
	leaq	496(%rbp), %rax
	movq	%rax, %rcx
	call	_ZN5TokenD1Ev
	jmp	.L124
.L223:
	movq	%rax, %rbx
	leaq	544(%rbp), %rax
	movq	%rax, %rcx
	call	_ZN5TokenD1Ev
	jmp	.L124
.L224:
	movq	%rax, %rbx
	leaq	592(%rbp), %rax
	movq	%rax, %rcx
	call	_ZN5TokenD1Ev
	jmp	.L124
.L225:
	movq	%rax, %rbx
	leaq	640(%rbp), %rax
	movq	%rax, %rcx
	call	_ZN5TokenD1Ev
	jmp	.L124
.L226:
	movq	%rax, %rbx
	leaq	688(%rbp), %rax
	movq	%rax, %rcx
	call	_ZN5TokenD1Ev
	jmp	.L124
.L227:
	movq	%rax, %rbx
	leaq	736(%rbp), %rax
	movq	%rax, %rcx
	call	_ZN5TokenD1Ev
	jmp	.L124
.L228:
	movq	%rax, %rbx
	leaq	784(%rbp), %rax
	movq	%rax, %rcx
	call	_ZN5TokenD1Ev
	jmp	.L124
.L229:
	movq	%rax, %rbx
	leaq	832(%rbp), %rax
	movq	%rax, %rcx
	call	_ZN5TokenD1Ev
	jmp	.L124
.L230:
	movq	%rax, %rbx
	leaq	880(%rbp), %rax
	movq	%rax, %rcx
	call	_ZN5TokenD1Ev
	jmp	.L124
.L231:
	movq	%rax, %rbx
	leaq	928(%rbp), %rax
	movq	%rax, %rcx
	call	_ZN5TokenD1Ev
	jmp	.L124
.L211:
	movq	%rax, %rbx
.L124:
	leaq	-96(%rbp), %rax
	movq	%rax, %rcx
	call	_ZNSt7__cxx1112basic_stringIcSt11char_traitsIcESaIcEED1Ev
	jmp	.L122
.L233:
	movq	%rax, %rbx
	leaq	976(%rbp), %rax
	movq	%rax, %rcx
	call	_ZN5TokenD1Ev
	jmp	.L145
.L232:
	movq	%rax, %rbx
.L145:
	leaq	1024(%rbp), %rax
	movq	%rax, %rcx
	call	_ZNSt7__cxx1112basic_stringIcSt11char_traitsIcESaIcEED1Ev
	jmp	.L122
.L235:
	movq	%rax, %rbx
	leaq	1056(%rbp), %rax
	movq	%rax, %rcx
	call	_ZN5TokenD1Ev
	jmp	.L147
.L234:
	movq	%rax, %rbx
.L147:
	leaq	1104(%rbp), %rax
	movq	%rax, %rcx
	call	_ZNSt7__cxx1112basic_stringIcSt11char_traitsIcESaIcEED1Ev
	jmp	.L122
.L238:
	movq	%rax, %rbx
	leaq	1136(%rbp), %rax
	movq	%rax, %rcx
	call	_ZN5TokenD1Ev
	jmp	.L149
.L237:
	movq	%rax, %rbx
.L149:
	leaq	1184(%rbp), %rax
	movq	%rax, %rcx
	call	_ZNSt7__cxx1112basic_stringIcSt11char_traitsIcESaIcEED1Ev
	jmp	.L150
.L236:
	movq	%rax, %rbx
.L150:
	leaq	1231(%rbp), %rax
	movq	%rax, %rcx
	call	_ZNSt15__new_allocatorIcED2Ev
	nop
	jmp	.L122
.L241:
	movq	%rax, %rbx
	leaq	1232(%rbp), %rax
	movq	%rax, %rcx
	call	_ZN5TokenD1Ev
	jmp	.L152
.L240:
	movq	%rax, %rbx
.L152:
	leaq	1280(%rbp), %rax
	movq	%rax, %rcx
	call	_ZNSt7__cxx1112basic_stringIcSt11char_traitsIcESaIcEED1Ev
	jmp	.L153
.L239:
	movq	%rax, %rbx
.L153:
	leaq	1327(%rbp), %rax
	movq	%rax, %rcx
	call	_ZNSt15__new_allocatorIcED2Ev
	nop
	jmp	.L122
.L244:
	movq	%rax, %rbx
	leaq	1328(%rbp), %rax
	movq	%rax, %rcx
	call	_ZN5TokenD1Ev
	jmp	.L155
.L243:
	movq	%rax, %rbx
.L155:
	leaq	1376(%rbp), %rax
	movq	%rax, %rcx
	call	_ZNSt7__cxx1112basic_stringIcSt11char_traitsIcESaIcEED1Ev
	jmp	.L156
.L242:
	movq	%rax, %rbx
.L156:
	leaq	1423(%rbp), %rax
	movq	%rax, %rcx
	call	_ZNSt15__new_allocatorIcED2Ev
	nop
	jmp	.L122
.L247:
	movq	%rax, %rbx
	leaq	1424(%rbp), %rax
	movq	%rax, %rcx
	call	_ZN5TokenD1Ev
	jmp	.L158
.L246:
	movq	%rax, %rbx
.L158:
	leaq	1472(%rbp), %rax
	movq	%rax, %rcx
	call	_ZNSt7__cxx1112basic_stringIcSt11char_traitsIcESaIcEED1Ev
	jmp	.L159
.L245:
	movq	%rax, %rbx
.L159:
	leaq	1519(%rbp), %rax
	movq	%rax, %rcx
	call	_ZNSt15__new_allocatorIcED2Ev
	nop
	jmp	.L122
.L250:
	movq	%rax, %rbx
	leaq	1520(%rbp), %rax
	movq	%rax, %rcx
	call	_ZN5TokenD1Ev
	jmp	.L161
.L249:
	movq	%rax, %rbx
.L161:
	leaq	1568(%rbp), %rax
	movq	%rax, %rcx
	call	_ZNSt7__cxx1112basic_stringIcSt11char_traitsIcESaIcEED1Ev
	jmp	.L162
.L248:
	movq	%rax, %rbx
.L162:
	leaq	1615(%rbp), %rax
	movq	%rax, %rcx
	call	_ZNSt15__new_allocatorIcED2Ev
	nop
	jmp	.L122
.L253:
	movq	%rax, %rbx
	leaq	1616(%rbp), %rax
	movq	%rax, %rcx
	call	_ZN5TokenD1Ev
	jmp	.L164
.L252:
	movq	%rax, %rbx
.L164:
	leaq	1664(%rbp), %rax
	movq	%rax, %rcx
	call	_ZNSt7__cxx1112basic_stringIcSt11char_traitsIcESaIcEED1Ev
	jmp	.L165
.L251:
	movq	%rax, %rbx
.L165:
	leaq	1711(%rbp), %rax
	movq	%rax, %rcx
	call	_ZNSt15__new_allocatorIcED2Ev
	nop
	jmp	.L122
.L256:
	movq	%rax, %rbx
	leaq	1712(%rbp), %rax
	movq	%rax, %rcx
	call	_ZN5TokenD1Ev
	jmp	.L167
.L255:
	movq	%rax, %rbx
.L167:
	leaq	1760(%rbp), %rax
	movq	%rax, %rcx
	call	_ZNSt7__cxx1112basic_stringIcSt11char_traitsIcESaIcEED1Ev
	jmp	.L168
.L254:
	movq	%rax, %rbx
.L168:
	leaq	1807(%rbp), %rax
	movq	%rax, %rcx
	call	_ZNSt15__new_allocatorIcED2Ev
	nop
	jmp	.L122
.L259:
	movq	%rax, %rbx
	leaq	1808(%rbp), %rax
	movq	%rax, %rcx
	call	_ZN5TokenD1Ev
	jmp	.L170
.L258:
	movq	%rax, %rbx
.L170:
	leaq	1856(%rbp), %rax
	movq	%rax, %rcx
	call	_ZNSt7__cxx1112basic_stringIcSt11char_traitsIcESaIcEED1Ev
	jmp	.L171
.L257:
	movq	%rax, %rbx
.L171:
	leaq	1903(%rbp), %rax
	movq	%rax, %rcx
	call	_ZNSt15__new_allocatorIcED2Ev
	nop
	jmp	.L122
.L262:
	movq	%rax, %rbx
	leaq	1904(%rbp), %rax
	movq	%rax, %rcx
	call	_ZN5TokenD1Ev
	jmp	.L173
.L261:
	movq	%rax, %rbx
.L173:
	leaq	1952(%rbp), %rax
	movq	%rax, %rcx
	call	_ZNSt7__cxx1112basic_stringIcSt11char_traitsIcESaIcEED1Ev
	jmp	.L174
.L260:
	movq	%rax, %rbx
.L174:
	leaq	1999(%rbp), %rax
	movq	%rax, %rcx
	call	_ZNSt15__new_allocatorIcED2Ev
	nop
	jmp	.L122
.L265:
	movq	%rax, %rbx
	leaq	2000(%rbp), %rax
	movq	%rax, %rcx
	call	_ZN5TokenD1Ev
	jmp	.L176
.L264:
	movq	%rax, %rbx
.L176:
	leaq	2048(%rbp), %rax
	movq	%rax, %rcx
	call	_ZNSt7__cxx1112basic_stringIcSt11char_traitsIcESaIcEED1Ev
	jmp	.L177
.L263:
	movq	%rax, %rbx
.L177:
	leaq	2095(%rbp), %rax
	movq	%rax, %rcx
	call	_ZNSt15__new_allocatorIcED2Ev
	nop
	jmp	.L122
.L268:
	movq	%rax, %rbx
	leaq	2096(%rbp), %rax
	movq	%rax, %rcx
	call	_ZN5TokenD1Ev
	jmp	.L179
.L267:
	movq	%rax, %rbx
.L179:
	leaq	2144(%rbp), %rax
	movq	%rax, %rcx
	call	_ZNSt7__cxx1112basic_stringIcSt11char_traitsIcESaIcEED1Ev
	jmp	.L180
.L266:
	movq	%rax, %rbx
.L180:
	leaq	2191(%rbp), %rax
	movq	%rax, %rcx
	call	_ZNSt15__new_allocatorIcED2Ev
	nop
	jmp	.L122
.L271:
	movq	%rax, %rbx
	leaq	2192(%rbp), %rax
	movq	%rax, %rcx
	call	_ZN5TokenD1Ev
	jmp	.L182
.L270:
	movq	%rax, %rbx
.L182:
	leaq	2240(%rbp), %rax
	movq	%rax, %rcx
	call	_ZNSt7__cxx1112basic_stringIcSt11char_traitsIcESaIcEED1Ev
	jmp	.L183
.L269:
	movq	%rax, %rbx
.L183:
	leaq	2287(%rbp), %rax
	movq	%rax, %rcx
	call	_ZNSt15__new_allocatorIcED2Ev
	nop
	jmp	.L122
.L274:
	movq	%rax, %rbx
	leaq	2288(%rbp), %rax
	movq	%rax, %rcx
	call	_ZN5TokenD1Ev
	jmp	.L185
.L273:
	movq	%rax, %rbx
.L185:
	leaq	2336(%rbp), %rax
	movq	%rax, %rcx
	call	_ZNSt7__cxx1112basic_stringIcSt11char_traitsIcESaIcEED1Ev
	jmp	.L186
.L272:
	movq	%rax, %rbx
.L186:
	leaq	2383(%rbp), %rax
	movq	%rax, %rcx
	call	_ZNSt15__new_allocatorIcED2Ev
	nop
	jmp	.L122
.L277:
	movq	%rax, %rbx
	leaq	2384(%rbp), %rax
	movq	%rax, %rcx
	call	_ZN5TokenD1Ev
	jmp	.L188
.L276:
	movq	%rax, %rbx
.L188:
	leaq	2432(%rbp), %rax
	movq	%rax, %rcx
	call	_ZNSt7__cxx1112basic_stringIcSt11char_traitsIcESaIcEED1Ev
	jmp	.L189
.L275:
	movq	%rax, %rbx
.L189:
	leaq	2479(%rbp), %rax
	movq	%rax, %rcx
	call	_ZNSt15__new_allocatorIcED2Ev
	nop
	jmp	.L122
.L280:
	movq	%rax, %rbx
	leaq	2480(%rbp), %rax
	movq	%rax, %rcx
	call	_ZN5TokenD1Ev
	jmp	.L191
.L279:
	movq	%rax, %rbx
.L191:
	leaq	2528(%rbp), %rax
	movq	%rax, %rcx
	call	_ZNSt7__cxx1112basic_stringIcSt11char_traitsIcESaIcEED1Ev
	jmp	.L192
.L278:
	movq	%rax, %rbx
.L192:
	leaq	2575(%rbp), %rax
	movq	%rax, %rcx
	call	_ZNSt15__new_allocatorIcED2Ev
	nop
	jmp	.L122
.L283:
	movq	%rax, %rbx
	leaq	2576(%rbp), %rax
	movq	%rax, %rcx
	call	_ZN5TokenD1Ev
	jmp	.L194
.L282:
	movq	%rax, %rbx
.L194:
	leaq	2624(%rbp), %rax
	movq	%rax, %rcx
	call	_ZNSt7__cxx1112basic_stringIcSt11char_traitsIcESaIcEED1Ev
	jmp	.L195
.L281:
	movq	%rax, %rbx
.L195:
	leaq	2671(%rbp), %rax
	movq	%rax, %rcx
	call	_ZNSt15__new_allocatorIcED2Ev
	nop
	jmp	.L122
.L286:
	movq	%rax, %rbx
	leaq	2672(%rbp), %rax
	movq	%rax, %rcx
	call	_ZN5TokenD1Ev
	jmp	.L197
.L285:
	movq	%rax, %rbx
.L197:
	leaq	2720(%rbp), %rax
	movq	%rax, %rcx
	call	_ZNSt7__cxx1112basic_stringIcSt11char_traitsIcESaIcEED1Ev
	jmp	.L198
.L284:
	movq	%rax, %rbx
.L198:
	leaq	2767(%rbp), %rax
	movq	%rax, %rcx
	call	_ZNSt15__new_allocatorIcED2Ev
	nop
	jmp	.L122
.L289:
	movq	%rax, %rbx
	leaq	2768(%rbp), %rax
	movq	%rax, %rcx
	call	_ZN5TokenD1Ev
	jmp	.L200
.L288:
	movq	%rax, %rbx
.L200:
	leaq	2816(%rbp), %rax
	movq	%rax, %rcx
	call	_ZNSt7__cxx1112basic_stringIcSt11char_traitsIcESaIcEED1Ev
	jmp	.L201
.L287:
	movq	%rax, %rbx
.L201:
	leaq	2863(%rbp), %rax
	movq	%rax, %rcx
	call	_ZNSt15__new_allocatorIcED2Ev
	nop
	jmp	.L122
.L292:
	movq	%rax, %rbx
	leaq	2864(%rbp), %rax
	movq	%rax, %rcx
	call	_ZN5TokenD1Ev
	jmp	.L203
.L291:
	movq	%rax, %rbx
.L203:
	leaq	2912(%rbp), %rax
	movq	%rax, %rcx
	call	_ZNSt7__cxx1112basic_stringIcSt11char_traitsIcESaIcEED1Ev
	jmp	.L204
.L290:
	movq	%rax, %rbx
.L204:
	leaq	2959(%rbp), %rax
	movq	%rax, %rcx
	call	_ZNSt15__new_allocatorIcED2Ev
	nop
	jmp	.L122
.L295:
	movq	%rax, %rbx
	leaq	2960(%rbp), %rax
	movq	%rax, %rcx
	call	_ZN5TokenD1Ev
	jmp	.L206
.L294:
	movq	%rax, %rbx
.L206:
	leaq	3008(%rbp), %rax
	movq	%rax, %rcx
	call	_ZNSt7__cxx1112basic_stringIcSt11char_traitsIcESaIcEED1Ev
	jmp	.L207
.L293:
	movq	%rax, %rbx
.L207:
	leaq	3047(%rbp), %rax
	movq	%rax, %rcx
	call	_ZNSt15__new_allocatorIcED2Ev
	nop
	jmp	.L122
.L208:
	movq	%rax, %rbx
.L122:
	movq	3248(%rbp), %rax
	movq	%rax, %rcx
	call	_ZNSt6vectorI5TokenSaIS0_EED1Ev
	movq	%rbx, %rax
	movq	%rax, %rcx
.LEHB119:
	call	_Unwind_Resume
.LEHE119:
.L297:
	movq	3248(%rbp), %rax
	addq	$3352, %rsp
	popq	%rbx
	popq	%rbp
	ret
	.seh_handler	__gxx_personality_seh0, @unwind, @except
	.seh_handlerdata
.LLSDA3670:
	.byte	0xff
	.byte	0xff
	.byte	0x1
	.uleb128 .LLSDACSE3670-.LLSDACSB3670
.LLSDACSB3670:
	.uleb128 .LEHB2-.LFB3670
	.uleb128 .LEHE2-.LEHB2
	.uleb128 .L208-.LFB3670
	.uleb128 0
	.uleb128 .LEHB3-.LFB3670
	.uleb128 .LEHE3-.LEHB3
	.uleb128 .L209-.LFB3670
	.uleb128 0
	.uleb128 .LEHB4-.LFB3670
	.uleb128 .LEHE4-.LEHB4
	.uleb128 .L210-.LFB3670
	.uleb128 0
	.uleb128 .LEHB5-.LFB3670
	.uleb128 .LEHE5-.LEHB5
	.uleb128 .L208-.LFB3670
	.uleb128 0
	.uleb128 .LEHB6-.LFB3670
	.uleb128 .LEHE6-.LEHB6
	.uleb128 .L211-.LFB3670
	.uleb128 0
	.uleb128 .LEHB7-.LFB3670
	.uleb128 .LEHE7-.LEHB7
	.uleb128 .L212-.LFB3670
	.uleb128 0
	.uleb128 .LEHB8-.LFB3670
	.uleb128 .LEHE8-.LEHB8
	.uleb128 .L211-.LFB3670
	.uleb128 0
	.uleb128 .LEHB9-.LFB3670
	.uleb128 .LEHE9-.LEHB9
	.uleb128 .L213-.LFB3670
	.uleb128 0
	.uleb128 .LEHB10-.LFB3670
	.uleb128 .LEHE10-.LEHB10
	.uleb128 .L211-.LFB3670
	.uleb128 0
	.uleb128 .LEHB11-.LFB3670
	.uleb128 .LEHE11-.LEHB11
	.uleb128 .L214-.LFB3670
	.uleb128 0
	.uleb128 .LEHB12-.LFB3670
	.uleb128 .LEHE12-.LEHB12
	.uleb128 .L211-.LFB3670
	.uleb128 0
	.uleb128 .LEHB13-.LFB3670
	.uleb128 .LEHE13-.LEHB13
	.uleb128 .L215-.LFB3670
	.uleb128 0
	.uleb128 .LEHB14-.LFB3670
	.uleb128 .LEHE14-.LEHB14
	.uleb128 .L211-.LFB3670
	.uleb128 0
	.uleb128 .LEHB15-.LFB3670
	.uleb128 .LEHE15-.LEHB15
	.uleb128 .L216-.LFB3670
	.uleb128 0
	.uleb128 .LEHB16-.LFB3670
	.uleb128 .LEHE16-.LEHB16
	.uleb128 .L211-.LFB3670
	.uleb128 0
	.uleb128 .LEHB17-.LFB3670
	.uleb128 .LEHE17-.LEHB17
	.uleb128 .L217-.LFB3670
	.uleb128 0
	.uleb128 .LEHB18-.LFB3670
	.uleb128 .LEHE18-.LEHB18
	.uleb128 .L211-.LFB3670
	.uleb128 0
	.uleb128 .LEHB19-.LFB3670
	.uleb128 .LEHE19-.LEHB19
	.uleb128 .L218-.LFB3670
	.uleb128 0
	.uleb128 .LEHB20-.LFB3670
	.uleb128 .LEHE20-.LEHB20
	.uleb128 .L211-.LFB3670
	.uleb128 0
	.uleb128 .LEHB21-.LFB3670
	.uleb128 .LEHE21-.LEHB21
	.uleb128 .L219-.LFB3670
	.uleb128 0
	.uleb128 .LEHB22-.LFB3670
	.uleb128 .LEHE22-.LEHB22
	.uleb128 .L211-.LFB3670
	.uleb128 0
	.uleb128 .LEHB23-.LFB3670
	.uleb128 .LEHE23-.LEHB23
	.uleb128 .L220-.LFB3670
	.uleb128 0
	.uleb128 .LEHB24-.LFB3670
	.uleb128 .LEHE24-.LEHB24
	.uleb128 .L211-.LFB3670
	.uleb128 0
	.uleb128 .LEHB25-.LFB3670
	.uleb128 .LEHE25-.LEHB25
	.uleb128 .L221-.LFB3670
	.uleb128 0
	.uleb128 .LEHB26-.LFB3670
	.uleb128 .LEHE26-.LEHB26
	.uleb128 .L211-.LFB3670
	.uleb128 0
	.uleb128 .LEHB27-.LFB3670
	.uleb128 .LEHE27-.LEHB27
	.uleb128 .L222-.LFB3670
	.uleb128 0
	.uleb128 .LEHB28-.LFB3670
	.uleb128 .LEHE28-.LEHB28
	.uleb128 .L211-.LFB3670
	.uleb128 0
	.uleb128 .LEHB29-.LFB3670
	.uleb128 .LEHE29-.LEHB29
	.uleb128 .L223-.LFB3670
	.uleb128 0
	.uleb128 .LEHB30-.LFB3670
	.uleb128 .LEHE30-.LEHB30
	.uleb128 .L211-.LFB3670
	.uleb128 0
	.uleb128 .LEHB31-.LFB3670
	.uleb128 .LEHE31-.LEHB31
	.uleb128 .L224-.LFB3670
	.uleb128 0
	.uleb128 .LEHB32-.LFB3670
	.uleb128 .LEHE32-.LEHB32
	.uleb128 .L211-.LFB3670
	.uleb128 0
	.uleb128 .LEHB33-.LFB3670
	.uleb128 .LEHE33-.LEHB33
	.uleb128 .L225-.LFB3670
	.uleb128 0
	.uleb128 .LEHB34-.LFB3670
	.uleb128 .LEHE34-.LEHB34
	.uleb128 .L211-.LFB3670
	.uleb128 0
	.uleb128 .LEHB35-.LFB3670
	.uleb128 .LEHE35-.LEHB35
	.uleb128 .L226-.LFB3670
	.uleb128 0
	.uleb128 .LEHB36-.LFB3670
	.uleb128 .LEHE36-.LEHB36
	.uleb128 .L211-.LFB3670
	.uleb128 0
	.uleb128 .LEHB37-.LFB3670
	.uleb128 .LEHE37-.LEHB37
	.uleb128 .L227-.LFB3670
	.uleb128 0
	.uleb128 .LEHB38-.LFB3670
	.uleb128 .LEHE38-.LEHB38
	.uleb128 .L211-.LFB3670
	.uleb128 0
	.uleb128 .LEHB39-.LFB3670
	.uleb128 .LEHE39-.LEHB39
	.uleb128 .L228-.LFB3670
	.uleb128 0
	.uleb128 .LEHB40-.LFB3670
	.uleb128 .LEHE40-.LEHB40
	.uleb128 .L211-.LFB3670
	.uleb128 0
	.uleb128 .LEHB41-.LFB3670
	.uleb128 .LEHE41-.LEHB41
	.uleb128 .L229-.LFB3670
	.uleb128 0
	.uleb128 .LEHB42-.LFB3670
	.uleb128 .LEHE42-.LEHB42
	.uleb128 .L211-.LFB3670
	.uleb128 0
	.uleb128 .LEHB43-.LFB3670
	.uleb128 .LEHE43-.LEHB43
	.uleb128 .L230-.LFB3670
	.uleb128 0
	.uleb128 .LEHB44-.LFB3670
	.uleb128 .LEHE44-.LEHB44
	.uleb128 .L211-.LFB3670
	.uleb128 0
	.uleb128 .LEHB45-.LFB3670
	.uleb128 .LEHE45-.LEHB45
	.uleb128 .L231-.LFB3670
	.uleb128 0
	.uleb128 .LEHB46-.LFB3670
	.uleb128 .LEHE46-.LEHB46
	.uleb128 .L208-.LFB3670
	.uleb128 0
	.uleb128 .LEHB47-.LFB3670
	.uleb128 .LEHE47-.LEHB47
	.uleb128 .L232-.LFB3670
	.uleb128 0
	.uleb128 .LEHB48-.LFB3670
	.uleb128 .LEHE48-.LEHB48
	.uleb128 .L233-.LFB3670
	.uleb128 0
	.uleb128 .LEHB49-.LFB3670
	.uleb128 .LEHE49-.LEHB49
	.uleb128 .L208-.LFB3670
	.uleb128 0
	.uleb128 .LEHB50-.LFB3670
	.uleb128 .LEHE50-.LEHB50
	.uleb128 .L234-.LFB3670
	.uleb128 0
	.uleb128 .LEHB51-.LFB3670
	.uleb128 .LEHE51-.LEHB51
	.uleb128 .L235-.LFB3670
	.uleb128 0
	.uleb128 .LEHB52-.LFB3670
	.uleb128 .LEHE52-.LEHB52
	.uleb128 .L208-.LFB3670
	.uleb128 0
	.uleb128 .LEHB53-.LFB3670
	.uleb128 .LEHE53-.LEHB53
	.uleb128 .L236-.LFB3670
	.uleb128 0
	.uleb128 .LEHB54-.LFB3670
	.uleb128 .LEHE54-.LEHB54
	.uleb128 .L237-.LFB3670
	.uleb128 0
	.uleb128 .LEHB55-.LFB3670
	.uleb128 .LEHE55-.LEHB55
	.uleb128 .L238-.LFB3670
	.uleb128 0
	.uleb128 .LEHB56-.LFB3670
	.uleb128 .LEHE56-.LEHB56
	.uleb128 .L239-.LFB3670
	.uleb128 0
	.uleb128 .LEHB57-.LFB3670
	.uleb128 .LEHE57-.LEHB57
	.uleb128 .L240-.LFB3670
	.uleb128 0
	.uleb128 .LEHB58-.LFB3670
	.uleb128 .LEHE58-.LEHB58
	.uleb128 .L241-.LFB3670
	.uleb128 0
	.uleb128 .LEHB59-.LFB3670
	.uleb128 .LEHE59-.LEHB59
	.uleb128 .L208-.LFB3670
	.uleb128 0
	.uleb128 .LEHB60-.LFB3670
	.uleb128 .LEHE60-.LEHB60
	.uleb128 .L242-.LFB3670
	.uleb128 0
	.uleb128 .LEHB61-.LFB3670
	.uleb128 .LEHE61-.LEHB61
	.uleb128 .L243-.LFB3670
	.uleb128 0
	.uleb128 .LEHB62-.LFB3670
	.uleb128 .LEHE62-.LEHB62
	.uleb128 .L244-.LFB3670
	.uleb128 0
	.uleb128 .LEHB63-.LFB3670
	.uleb128 .LEHE63-.LEHB63
	.uleb128 .L208-.LFB3670
	.uleb128 0
	.uleb128 .LEHB64-.LFB3670
	.uleb128 .LEHE64-.LEHB64
	.uleb128 .L245-.LFB3670
	.uleb128 0
	.uleb128 .LEHB65-.LFB3670
	.uleb128 .LEHE65-.LEHB65
	.uleb128 .L246-.LFB3670
	.uleb128 0
	.uleb128 .LEHB66-.LFB3670
	.uleb128 .LEHE66-.LEHB66
	.uleb128 .L247-.LFB3670
	.uleb128 0
	.uleb128 .LEHB67-.LFB3670
	.uleb128 .LEHE67-.LEHB67
	.uleb128 .L208-.LFB3670
	.uleb128 0
	.uleb128 .LEHB68-.LFB3670
	.uleb128 .LEHE68-.LEHB68
	.uleb128 .L248-.LFB3670
	.uleb128 0
	.uleb128 .LEHB69-.LFB3670
	.uleb128 .LEHE69-.LEHB69
	.uleb128 .L249-.LFB3670
	.uleb128 0
	.uleb128 .LEHB70-.LFB3670
	.uleb128 .LEHE70-.LEHB70
	.uleb128 .L250-.LFB3670
	.uleb128 0
	.uleb128 .LEHB71-.LFB3670
	.uleb128 .LEHE71-.LEHB71
	.uleb128 .L208-.LFB3670
	.uleb128 0
	.uleb128 .LEHB72-.LFB3670
	.uleb128 .LEHE72-.LEHB72
	.uleb128 .L251-.LFB3670
	.uleb128 0
	.uleb128 .LEHB73-.LFB3670
	.uleb128 .LEHE73-.LEHB73
	.uleb128 .L252-.LFB3670
	.uleb128 0
	.uleb128 .LEHB74-.LFB3670
	.uleb128 .LEHE74-.LEHB74
	.uleb128 .L253-.LFB3670
	.uleb128 0
	.uleb128 .LEHB75-.LFB3670
	.uleb128 .LEHE75-.LEHB75
	.uleb128 .L254-.LFB3670
	.uleb128 0
	.uleb128 .LEHB76-.LFB3670
	.uleb128 .LEHE76-.LEHB76
	.uleb128 .L255-.LFB3670
	.uleb128 0
	.uleb128 .LEHB77-.LFB3670
	.uleb128 .LEHE77-.LEHB77
	.uleb128 .L256-.LFB3670
	.uleb128 0
	.uleb128 .LEHB78-.LFB3670
	.uleb128 .LEHE78-.LEHB78
	.uleb128 .L208-.LFB3670
	.uleb128 0
	.uleb128 .LEHB79-.LFB3670
	.uleb128 .LEHE79-.LEHB79
	.uleb128 .L257-.LFB3670
	.uleb128 0
	.uleb128 .LEHB80-.LFB3670
	.uleb128 .LEHE80-.LEHB80
	.uleb128 .L258-.LFB3670
	.uleb128 0
	.uleb128 .LEHB81-.LFB3670
	.uleb128 .LEHE81-.LEHB81
	.uleb128 .L259-.LFB3670
	.uleb128 0
	.uleb128 .LEHB82-.LFB3670
	.uleb128 .LEHE82-.LEHB82
	.uleb128 .L260-.LFB3670
	.uleb128 0
	.uleb128 .LEHB83-.LFB3670
	.uleb128 .LEHE83-.LEHB83
	.uleb128 .L261-.LFB3670
	.uleb128 0
	.uleb128 .LEHB84-.LFB3670
	.uleb128 .LEHE84-.LEHB84
	.uleb128 .L262-.LFB3670
	.uleb128 0
	.uleb128 .LEHB85-.LFB3670
	.uleb128 .LEHE85-.LEHB85
	.uleb128 .L263-.LFB3670
	.uleb128 0
	.uleb128 .LEHB86-.LFB3670
	.uleb128 .LEHE86-.LEHB86
	.uleb128 .L264-.LFB3670
	.uleb128 0
	.uleb128 .LEHB87-.LFB3670
	.uleb128 .LEHE87-.LEHB87
	.uleb128 .L265-.LFB3670
	.uleb128 0
	.uleb128 .LEHB88-.LFB3670
	.uleb128 .LEHE88-.LEHB88
	.uleb128 .L266-.LFB3670
	.uleb128 0
	.uleb128 .LEHB89-.LFB3670
	.uleb128 .LEHE89-.LEHB89
	.uleb128 .L267-.LFB3670
	.uleb128 0
	.uleb128 .LEHB90-.LFB3670
	.uleb128 .LEHE90-.LEHB90
	.uleb128 .L268-.LFB3670
	.uleb128 0
	.uleb128 .LEHB91-.LFB3670
	.uleb128 .LEHE91-.LEHB91
	.uleb128 .L269-.LFB3670
	.uleb128 0
	.uleb128 .LEHB92-.LFB3670
	.uleb128 .LEHE92-.LEHB92
	.uleb128 .L270-.LFB3670
	.uleb128 0
	.uleb128 .LEHB93-.LFB3670
	.uleb128 .LEHE93-.LEHB93
	.uleb128 .L271-.LFB3670
	.uleb128 0
	.uleb128 .LEHB94-.LFB3670
	.uleb128 .LEHE94-.LEHB94
	.uleb128 .L272-.LFB3670
	.uleb128 0
	.uleb128 .LEHB95-.LFB3670
	.uleb128 .LEHE95-.LEHB95
	.uleb128 .L273-.LFB3670
	.uleb128 0
	.uleb128 .LEHB96-.LFB3670
	.uleb128 .LEHE96-.LEHB96
	.uleb128 .L274-.LFB3670
	.uleb128 0
	.uleb128 .LEHB97-.LFB3670
	.uleb128 .LEHE97-.LEHB97
	.uleb128 .L275-.LFB3670
	.uleb128 0
	.uleb128 .LEHB98-.LFB3670
	.uleb128 .LEHE98-.LEHB98
	.uleb128 .L276-.LFB3670
	.uleb128 0
	.uleb128 .LEHB99-.LFB3670
	.uleb128 .LEHE99-.LEHB99
	.uleb128 .L277-.LFB3670
	.uleb128 0
	.uleb128 .LEHB100-.LFB3670
	.uleb128 .LEHE100-.LEHB100
	.uleb128 .L278-.LFB3670
	.uleb128 0
	.uleb128 .LEHB101-.LFB3670
	.uleb128 .LEHE101-.LEHB101
	.uleb128 .L279-.LFB3670
	.uleb128 0
	.uleb128 .LEHB102-.LFB3670
	.uleb128 .LEHE102-.LEHB102
	.uleb128 .L280-.LFB3670
	.uleb128 0
	.uleb128 .LEHB103-.LFB3670
	.uleb128 .LEHE103-.LEHB103
	.uleb128 .L281-.LFB3670
	.uleb128 0
	.uleb128 .LEHB104-.LFB3670
	.uleb128 .LEHE104-.LEHB104
	.uleb128 .L282-.LFB3670
	.uleb128 0
	.uleb128 .LEHB105-.LFB3670
	.uleb128 .LEHE105-.LEHB105
	.uleb128 .L283-.LFB3670
	.uleb128 0
	.uleb128 .LEHB106-.LFB3670
	.uleb128 .LEHE106-.LEHB106
	.uleb128 .L284-.LFB3670
	.uleb128 0
	.uleb128 .LEHB107-.LFB3670
	.uleb128 .LEHE107-.LEHB107
	.uleb128 .L285-.LFB3670
	.uleb128 0
	.uleb128 .LEHB108-.LFB3670
	.uleb128 .LEHE108-.LEHB108
	.uleb128 .L286-.LFB3670
	.uleb128 0
	.uleb128 .LEHB109-.LFB3670
	.uleb128 .LEHE109-.LEHB109
	.uleb128 .L287-.LFB3670
	.uleb128 0
	.uleb128 .LEHB110-.LFB3670
	.uleb128 .LEHE110-.LEHB110
	.uleb128 .L288-.LFB3670
	.uleb128 0
	.uleb128 .LEHB111-.LFB3670
	.uleb128 .LEHE111-.LEHB111
	.uleb128 .L289-.LFB3670
	.uleb128 0
	.uleb128 .LEHB112-.LFB3670
	.uleb128 .LEHE112-.LEHB112
	.uleb128 .L290-.LFB3670
	.uleb128 0
	.uleb128 .LEHB113-.LFB3670
	.uleb128 .LEHE113-.LEHB113
	.uleb128 .L291-.LFB3670
	.uleb128 0
	.uleb128 .LEHB114-.LFB3670
	.uleb128 .LEHE114-.LEHB114
	.uleb128 .L292-.LFB3670
	.uleb128 0
	.uleb128 .LEHB115-.LFB3670
	.uleb128 .LEHE115-.LEHB115
	.uleb128 .L208-.LFB3670
	.uleb128 0
	.uleb128 .LEHB116-.LFB3670
	.uleb128 .LEHE116-.LEHB116
	.uleb128 .L293-.LFB3670
	.uleb128 0
	.uleb128 .LEHB117-.LFB3670
	.uleb128 .LEHE117-.LEHB117
	.uleb128 .L294-.LFB3670
	.uleb128 0
	.uleb128 .LEHB118-.LFB3670
	.uleb128 .LEHE118-.LEHB118
	.uleb128 .L295-.LFB3670
	.uleb128 0
	.uleb128 .LEHB119-.LFB3670
	.uleb128 .LEHE119-.LEHB119
	.uleb128 0
	.uleb128 0
.LLSDACSE3670:
	.section	.text$_ZN5Lexer8tokenizeEv,"x"
	.linkonce discard
	.seh_endproc
	.section	.text$_ZN5Lexer13consumeNumberB5cxx11Ev,"x"
	.linkonce discard
	.align 2
	.globl	_ZN5Lexer13consumeNumberB5cxx11Ev
	.def	_ZN5Lexer13consumeNumberB5cxx11Ev;	.scl	2;	.type	32;	.endef
	.seh_proc	_ZN5Lexer13consumeNumberB5cxx11Ev
_ZN5Lexer13consumeNumberB5cxx11Ev:
.LFB3690:
	pushq	%rbp
	.seh_pushreg	%rbp
	pushq	%rbx
	.seh_pushreg	%rbx
	subq	$56, %rsp
	.seh_stackalloc	56
	leaq	48(%rsp), %rbp
	.seh_setframe	%rbp, 48
	.seh_endprologue
	movq	%rcx, 32(%rbp)
	movq	%rdx, 40(%rbp)
	movq	40(%rbp), %rax
	movq	32(%rax), %rax
	movq	%rax, -8(%rbp)
	jmp	.L300
.L303:
	movq	40(%rbp), %rax
	movq	32(%rax), %rax
	leaq	1(%rax), %rdx
	movq	40(%rbp), %rax
	movq	%rdx, 32(%rax)
.L300:
	movq	40(%rbp), %rax
	movq	32(%rax), %rbx
	movq	40(%rbp), %rax
	movq	%rax, %rcx
	call	_ZNKSt7__cxx1112basic_stringIcSt11char_traitsIcESaIcEE4sizeEv
	cmpq	%rax, %rbx
	jnb	.L301
	movq	40(%rbp), %rax
	movq	40(%rbp), %rdx
	movq	32(%rdx), %rdx
	movq	%rax, %rcx
	call	_ZNSt7__cxx1112basic_stringIcSt11char_traitsIcESaIcEEixEy
	movzbl	(%rax), %eax
	movsbl	%al, %eax
	subl	$48, %eax
	cmpl	$9, %eax
	setbe	%al
	movzbl	%al, %eax
	testl	%eax, %eax
	je	.L301
	movl	$1, %eax
	jmp	.L302
.L301:
	movl	$0, %eax
.L302:
	testb	%al, %al
	jne	.L303
	movq	40(%rbp), %rax
	movq	32(%rax), %rbx
	movq	40(%rbp), %rax
	movq	%rax, %rcx
	call	_ZNKSt7__cxx1112basic_stringIcSt11char_traitsIcESaIcEE4sizeEv
	cmpq	%rax, %rbx
	jnb	.L304
	movq	40(%rbp), %rax
	movq	40(%rbp), %rdx
	movq	32(%rdx), %rdx
	movq	%rax, %rcx
	call	_ZNSt7__cxx1112basic_stringIcSt11char_traitsIcESaIcEEixEy
	movzbl	(%rax), %eax
	cmpb	$46, %al
	jne	.L304
	movl	$1, %eax
	jmp	.L305
.L304:
	movl	$0, %eax
.L305:
	testb	%al, %al
	je	.L306
	movq	40(%rbp), %rax
	movq	32(%rax), %rax
	leaq	1(%rax), %rdx
	movq	40(%rbp), %rax
	movq	%rdx, 32(%rax)
	jmp	.L307
.L310:
	movq	40(%rbp), %rax
	movq	32(%rax), %rax
	leaq	1(%rax), %rdx
	movq	40(%rbp), %rax
	movq	%rdx, 32(%rax)
.L307:
	movq	40(%rbp), %rax
	movq	32(%rax), %rbx
	movq	40(%rbp), %rax
	movq	%rax, %rcx
	call	_ZNKSt7__cxx1112basic_stringIcSt11char_traitsIcESaIcEE4sizeEv
	cmpq	%rax, %rbx
	jnb	.L308
	movq	40(%rbp), %rax
	movq	40(%rbp), %rdx
	movq	32(%rdx), %rdx
	movq	%rax, %rcx
	call	_ZNSt7__cxx1112basic_stringIcSt11char_traitsIcESaIcEEixEy
	movzbl	(%rax), %eax
	movsbl	%al, %eax
	subl	$48, %eax
	cmpl	$9, %eax
	setbe	%al
	movzbl	%al, %eax
	testl	%eax, %eax
	je	.L308
	movl	$1, %eax
	jmp	.L309
.L308:
	movl	$0, %eax
.L309:
	testb	%al, %al
	jne	.L310
.L306:
	movq	40(%rbp), %rdx
	movq	40(%rbp), %rax
	movq	32(%rax), %rax
	subq	-8(%rbp), %rax
	movq	%rax, %r8
	movq	32(%rbp), %rax
	movq	-8(%rbp), %rcx
	movq	%r8, %r9
	movq	%rcx, %r8
	movq	%rax, %rcx
	call	_ZNKSt7__cxx1112basic_stringIcSt11char_traitsIcESaIcEE6substrEyy
	movq	32(%rbp), %rax
	addq	$56, %rsp
	popq	%rbx
	popq	%rbp
	ret
	.seh_endproc
	.section	.text$_ZN5Lexer11consumeWordB5cxx11Ev,"x"
	.linkonce discard
	.align 2
	.globl	_ZN5Lexer11consumeWordB5cxx11Ev
	.def	_ZN5Lexer11consumeWordB5cxx11Ev;	.scl	2;	.type	32;	.endef
	.seh_proc	_ZN5Lexer11consumeWordB5cxx11Ev
_ZN5Lexer11consumeWordB5cxx11Ev:
.LFB3691:
	pushq	%rbp
	.seh_pushreg	%rbp
	pushq	%rbx
	.seh_pushreg	%rbx
	subq	$56, %rsp
	.seh_stackalloc	56
	leaq	48(%rsp), %rbp
	.seh_setframe	%rbp, 48
	.seh_endprologue
	movq	%rcx, 32(%rbp)
	movq	%rdx, 40(%rbp)
	movq	40(%rbp), %rax
	movq	32(%rax), %rax
	movq	%rax, -8(%rbp)
	jmp	.L313
.L316:
	movq	40(%rbp), %rax
	movq	32(%rax), %rax
	leaq	1(%rax), %rdx
	movq	40(%rbp), %rax
	movq	%rdx, 32(%rax)
.L313:
	movq	40(%rbp), %rax
	movq	32(%rax), %rbx
	movq	40(%rbp), %rax
	movq	%rax, %rcx
	call	_ZNKSt7__cxx1112basic_stringIcSt11char_traitsIcESaIcEE4sizeEv
	cmpq	%rax, %rbx
	jnb	.L314
	movq	40(%rbp), %rax
	movq	40(%rbp), %rdx
	movq	32(%rdx), %rdx
	movq	%rax, %rcx
	call	_ZNSt7__cxx1112basic_stringIcSt11char_traitsIcESaIcEEixEy
	movzbl	(%rax), %eax
	movsbl	%al, %eax
	movl	%eax, %ecx
	movq	__imp_isalnum(%rip), %rax
	call	*%rax
	testl	%eax, %eax
	je	.L314
	movl	$1, %eax
	jmp	.L315
.L314:
	movl	$0, %eax
.L315:
	testb	%al, %al
	jne	.L316
	movq	40(%rbp), %rdx
	movq	40(%rbp), %rax
	movq	32(%rax), %rax
	subq	-8(%rbp), %rax
	movq	%rax, %r8
	movq	32(%rbp), %rax
	movq	-8(%rbp), %rcx
	movq	%r8, %r9
	movq	%rcx, %r8
	movq	%rax, %rcx
	call	_ZNKSt7__cxx1112basic_stringIcSt11char_traitsIcESaIcEE6substrEyy
	movq	32(%rbp), %rax
	addq	$56, %rsp
	popq	%rbx
	popq	%rbp
	ret
	.seh_endproc
	.section	.text$_ZN5Lexer20consumeStringLiteralB5cxx11Ev,"x"
	.linkonce discard
	.align 2
	.globl	_ZN5Lexer20consumeStringLiteralB5cxx11Ev
	.def	_ZN5Lexer20consumeStringLiteralB5cxx11Ev;	.scl	2;	.type	32;	.endef
	.seh_proc	_ZN5Lexer20consumeStringLiteralB5cxx11Ev
_ZN5Lexer20consumeStringLiteralB5cxx11Ev:
.LFB3692:
	pushq	%rbp
	.seh_pushreg	%rbp
	pushq	%rbx
	.seh_pushreg	%rbx
	subq	$56, %rsp
	.seh_stackalloc	56
	leaq	48(%rsp), %rbp
	.seh_setframe	%rbp, 48
	.seh_endprologue
	movq	%rcx, 32(%rbp)
	movq	%rdx, 40(%rbp)
	movq	40(%rbp), %rax
	movq	32(%rax), %rax
	leaq	1(%rax), %rdx
	movq	40(%rbp), %rax
	movq	%rdx, 32(%rax)
	movq	40(%rbp), %rax
	movq	32(%rax), %rax
	movq	%rax, -8(%rbp)
	jmp	.L319
.L322:
	movq	40(%rbp), %rax
	movq	32(%rax), %rax
	leaq	1(%rax), %rdx
	movq	40(%rbp), %rax
	movq	%rdx, 32(%rax)
.L319:
	movq	40(%rbp), %rax
	movq	32(%rax), %rbx
	movq	40(%rbp), %rax
	movq	%rax, %rcx
	call	_ZNKSt7__cxx1112basic_stringIcSt11char_traitsIcESaIcEE4sizeEv
	cmpq	%rax, %rbx
	jnb	.L320
	movq	40(%rbp), %rax
	movq	40(%rbp), %rdx
	movq	32(%rdx), %rdx
	movq	%rax, %rcx
	call	_ZNSt7__cxx1112basic_stringIcSt11char_traitsIcESaIcEEixEy
	movzbl	(%rax), %eax
	cmpb	$34, %al
	je	.L320
	movl	$1, %eax
	jmp	.L321
.L320:
	movl	$0, %eax
.L321:
	testb	%al, %al
	jne	.L322
	movq	40(%rbp), %rax
	movq	32(%rax), %rax
	leaq	1(%rax), %rdx
	movq	40(%rbp), %rax
	movq	%rdx, 32(%rax)
	movq	40(%rbp), %rdx
	movq	40(%rbp), %rax
	movq	32(%rax), %rax
	subq	-8(%rbp), %rax
	leaq	-1(%rax), %r8
	movq	32(%rbp), %rax
	movq	-8(%rbp), %rcx
	movq	%r8, %r9
	movq	%rcx, %r8
	movq	%rax, %rcx
	call	_ZNKSt7__cxx1112basic_stringIcSt11char_traitsIcESaIcEE6substrEyy
	movq	32(%rbp), %rax
	addq	$56, %rsp
	popq	%rbx
	popq	%rbp
	ret
	.seh_endproc
	.section .rdata,"dr"
	.align 8
.LC41:
	.ascii "Syntax error: empty or invalid char literal at line \0"
	.align 8
.LC42:
	.ascii "Syntax error: expected closing single quote at line \0"
	.section	.text$_ZN5Lexer18consumeCharLiteralB5cxx11Ev,"x"
	.linkonce discard
	.align 2
	.globl	_ZN5Lexer18consumeCharLiteralB5cxx11Ev
	.def	_ZN5Lexer18consumeCharLiteralB5cxx11Ev;	.scl	2;	.type	32;	.endef
	.seh_proc	_ZN5Lexer18consumeCharLiteralB5cxx11Ev
_ZN5Lexer18consumeCharLiteralB5cxx11Ev:
.LFB3693:
	pushq	%rbp
	.seh_pushreg	%rbp
	pushq	%rbx
	.seh_pushreg	%rbx
	subq	$72, %rsp
	.seh_stackalloc	72
	leaq	64(%rsp), %rbp
	.seh_setframe	%rbp, 64
	.seh_endprologue
	movq	%rcx, 32(%rbp)
	movq	%rdx, 40(%rbp)
	movq	40(%rbp), %rax
	movq	32(%rax), %rax
	leaq	1(%rax), %rdx
	movq	40(%rbp), %rax
	movq	%rdx, 32(%rax)
	movq	40(%rbp), %rax
	movq	32(%rax), %rbx
	movq	40(%rbp), %rax
	movq	%rax, %rcx
	call	_ZNKSt7__cxx1112basic_stringIcSt11char_traitsIcESaIcEE4sizeEv
	cmpq	%rax, %rbx
	jnb	.L325
	movq	40(%rbp), %rax
	movq	40(%rbp), %rdx
	movq	32(%rdx), %rdx
	movq	%rax, %rcx
.LEHB120:
	call	_ZNSt7__cxx1112basic_stringIcSt11char_traitsIcESaIcEEixEy
	movzbl	(%rax), %eax
	cmpb	$39, %al
	jne	.L326
.L325:
	movl	$1, %eax
	jmp	.L327
.L326:
	movl	$0, %eax
.L327:
	testb	%al, %al
	je	.L328
	leaq	.LC41(%rip), %rax
	movq	%rax, %rdx
	movq	.refptr._ZSt4cout(%rip), %rax
	movq	%rax, %rcx
	call	_ZStlsISt11char_traitsIcEERSt13basic_ostreamIcT_ES5_PKc
	movq	%rax, %rcx
	movq	40(%rbp), %rax
	movl	40(%rax), %eax
	movl	%eax, %edx
	call	_ZNSolsEi
	movq	%rax, %rcx
	movq	.refptr._ZSt4endlIcSt11char_traitsIcEERSt13basic_ostreamIT_T0_ES6_(%rip), %rax
	movq	%rax, %rdx
	call	_ZNSolsEPFRSoS_E
	movl	$1, %ecx
	call	exit
.L328:
	movq	40(%rbp), %rax
	movq	40(%rbp), %rdx
	movq	32(%rdx), %rdx
	movq	%rax, %rcx
	call	_ZNSt7__cxx1112basic_stringIcSt11char_traitsIcESaIcEEixEy
	movzbl	(%rax), %eax
	movb	%al, -1(%rbp)
	movq	40(%rbp), %rax
	movq	32(%rax), %rax
	leaq	1(%rax), %rdx
	movq	40(%rbp), %rax
	movq	%rdx, 32(%rax)
	movq	40(%rbp), %rax
	movq	32(%rax), %rbx
	movq	40(%rbp), %rax
	movq	%rax, %rcx
	call	_ZNKSt7__cxx1112basic_stringIcSt11char_traitsIcESaIcEE4sizeEv
	cmpq	%rax, %rbx
	jnb	.L329
	movq	40(%rbp), %rax
	movq	40(%rbp), %rdx
	movq	32(%rdx), %rdx
	movq	%rax, %rcx
	call	_ZNSt7__cxx1112basic_stringIcSt11char_traitsIcESaIcEEixEy
	movzbl	(%rax), %eax
	cmpb	$39, %al
	je	.L330
.L329:
	movl	$1, %eax
	jmp	.L331
.L330:
	movl	$0, %eax
.L331:
	testb	%al, %al
	je	.L332
	leaq	.LC42(%rip), %rax
	movq	%rax, %rdx
	movq	.refptr._ZSt4cout(%rip), %rax
	movq	%rax, %rcx
	call	_ZStlsISt11char_traitsIcEERSt13basic_ostreamIcT_ES5_PKc
	movq	%rax, %rcx
	movq	40(%rbp), %rax
	movl	40(%rax), %eax
	movl	%eax, %edx
	call	_ZNSolsEi
	movq	%rax, %rcx
	movq	.refptr._ZSt4endlIcSt11char_traitsIcEERSt13basic_ostreamIT_T0_ES6_(%rip), %rax
	movq	%rax, %rdx
	call	_ZNSolsEPFRSoS_E
.LEHE120:
	movl	$1, %ecx
	call	exit
.L332:
	movq	40(%rbp), %rax
	movq	32(%rax), %rax
	leaq	1(%rax), %rdx
	movq	40(%rbp), %rax
	movq	%rdx, 32(%rax)
	leaq	-17(%rbp), %rax
	movq	%rax, -16(%rbp)
	nop
	nop
	movsbl	-1(%rbp), %edx
	leaq	-17(%rbp), %rcx
	movq	32(%rbp), %rax
	movq	%rcx, %r9
	movl	%edx, %r8d
	movl	$1, %edx
	movq	%rax, %rcx
.LEHB121:
	call	_ZNSt7__cxx1112basic_stringIcSt11char_traitsIcESaIcEEC1IS3_EEycRKS3_
.LEHE121:
	leaq	-17(%rbp), %rax
	movq	%rax, %rcx
	call	_ZNSt15__new_allocatorIcED2Ev
	nop
	jmp	.L336
.L335:
	movq	%rax, %rbx
	leaq	-17(%rbp), %rax
	movq	%rax, %rcx
	call	_ZNSt15__new_allocatorIcED2Ev
	nop
	movq	%rbx, %rax
	movq	%rax, %rcx
.LEHB122:
	call	_Unwind_Resume
.LEHE122:
.L336:
	movq	32(%rbp), %rax
	addq	$72, %rsp
	popq	%rbx
	popq	%rbp
	ret
	.seh_handler	__gxx_personality_seh0, @unwind, @except
	.seh_handlerdata
.LLSDA3693:
	.byte	0xff
	.byte	0xff
	.byte	0x1
	.uleb128 .LLSDACSE3693-.LLSDACSB3693
.LLSDACSB3693:
	.uleb128 .LEHB120-.LFB3693
	.uleb128 .LEHE120-.LEHB120
	.uleb128 0
	.uleb128 0
	.uleb128 .LEHB121-.LFB3693
	.uleb128 .LEHE121-.LEHB121
	.uleb128 .L335-.LFB3693
	.uleb128 0
	.uleb128 .LEHB122-.LFB3693
	.uleb128 .LEHE122-.LEHB122
	.uleb128 0
	.uleb128 0
.LLSDACSE3693:
	.section	.text$_ZN5Lexer18consumeCharLiteralB5cxx11Ev,"x"
	.linkonce discard
	.seh_endproc
	.section	.text$_ZN5Lexer14consumeCommentEv,"x"
	.linkonce discard
	.align 2
	.globl	_ZN5Lexer14consumeCommentEv
	.def	_ZN5Lexer14consumeCommentEv;	.scl	2;	.type	32;	.endef
	.seh_proc	_ZN5Lexer14consumeCommentEv
_ZN5Lexer14consumeCommentEv:
.LFB3694:
	pushq	%rbp
	.seh_pushreg	%rbp
	pushq	%rbx
	.seh_pushreg	%rbx
	subq	$40, %rsp
	.seh_stackalloc	40
	leaq	32(%rsp), %rbp
	.seh_setframe	%rbp, 32
	.seh_endprologue
	movq	%rcx, 32(%rbp)
	movq	32(%rbp), %rax
	movq	32(%rax), %rax
	leaq	2(%rax), %rdx
	movq	32(%rbp), %rax
	movq	%rdx, 32(%rax)
	jmp	.L338
.L341:
	movq	32(%rbp), %rax
	movq	32(%rax), %rax
	leaq	1(%rax), %rdx
	movq	32(%rbp), %rax
	movq	%rdx, 32(%rax)
.L338:
	movq	32(%rbp), %rax
	movq	32(%rax), %rbx
	movq	32(%rbp), %rax
	movq	%rax, %rcx
	call	_ZNKSt7__cxx1112basic_stringIcSt11char_traitsIcESaIcEE4sizeEv
	cmpq	%rax, %rbx
	jnb	.L339
	movq	32(%rbp), %rax
	movq	32(%rbp), %rdx
	movq	32(%rdx), %rdx
	movq	%rax, %rcx
	call	_ZNSt7__cxx1112basic_stringIcSt11char_traitsIcESaIcEEixEy
	movzbl	(%rax), %eax
	cmpb	$10, %al
	je	.L339
	movl	$1, %eax
	jmp	.L340
.L339:
	movl	$0, %eax
.L340:
	testb	%al, %al
	jne	.L341
	nop
	nop
	addq	$40, %rsp
	popq	%rbx
	popq	%rbp
	ret
	.seh_endproc
	.section	.text$_ZN5Lexer8peekNextEv,"x"
	.linkonce discard
	.align 2
	.globl	_ZN5Lexer8peekNextEv
	.def	_ZN5Lexer8peekNextEv;	.scl	2;	.type	32;	.endef
	.seh_proc	_ZN5Lexer8peekNextEv
_ZN5Lexer8peekNextEv:
.LFB3695:
	pushq	%rbp
	.seh_pushreg	%rbp
	pushq	%rbx
	.seh_pushreg	%rbx
	subq	$40, %rsp
	.seh_stackalloc	40
	leaq	32(%rsp), %rbp
	.seh_setframe	%rbp, 32
	.seh_endprologue
	movq	%rcx, 32(%rbp)
	movq	32(%rbp), %rax
	movq	32(%rax), %rax
	leaq	1(%rax), %rbx
	movq	32(%rbp), %rax
	movq	%rax, %rcx
	call	_ZNKSt7__cxx1112basic_stringIcSt11char_traitsIcESaIcEE4sizeEv
	cmpq	%rax, %rbx
	jnb	.L343
	movq	32(%rbp), %rax
	movq	32(%rbp), %rdx
	movq	32(%rdx), %rdx
	addq	$1, %rdx
	movq	%rax, %rcx
	call	_ZNSt7__cxx1112basic_stringIcSt11char_traitsIcESaIcEEixEy
	movzbl	(%rax), %eax
	jmp	.L345
.L343:
	movl	$0, %eax
.L345:
	addq	$40, %rsp
	popq	%rbx
	popq	%rbp
	ret
	.seh_endproc
	.section .rdata,"dr"
.LC43:
	.ascii "Semantic error: Variable '\0"
.LC44:
	.ascii "' is already declared.\0"
	.section	.text$_ZN11SymbolTable15declareVariableERKNSt7__cxx1112basic_stringIcSt11char_traitsIcESaIcEEES7_,"x"
	.linkonce discard
	.align 2
	.globl	_ZN11SymbolTable15declareVariableERKNSt7__cxx1112basic_stringIcSt11char_traitsIcESaIcEEES7_
	.def	_ZN11SymbolTable15declareVariableERKNSt7__cxx1112basic_stringIcSt11char_traitsIcESaIcEEES7_;	.scl	2;	.type	32;	.endef
	.seh_proc	_ZN11SymbolTable15declareVariableERKNSt7__cxx1112basic_stringIcSt11char_traitsIcESaIcEEES7_
_ZN11SymbolTable15declareVariableERKNSt7__cxx1112basic_stringIcSt11char_traitsIcESaIcEEES7_:
.LFB3696:
	pushq	%rbp
	.seh_pushreg	%rbp
	pushq	%rsi
	.seh_pushreg	%rsi
	pushq	%rbx
	.seh_pushreg	%rbx
	subq	$112, %rsp
	.seh_stackalloc	112
	leaq	112(%rsp), %rbp
	.seh_setframe	%rbp, 112
	.seh_endprologue
	movq	%rcx, 32(%rbp)
	movq	%rdx, 40(%rbp)
	movq	%r8, 48(%rbp)
	movq	32(%rbp), %rax
	movq	%rax, %rcx
	call	_ZNSt3mapINSt7__cxx1112basic_stringIcSt11char_traitsIcESaIcEEES5_St4lessIS5_ESaISt4pairIKS5_S5_EEE3endEv
	movq	%rax, -80(%rbp)
	movq	32(%rbp), %rax
	movq	40(%rbp), %rdx
	movq	%rax, %rcx
.LEHB123:
	call	_ZNSt3mapINSt7__cxx1112basic_stringIcSt11char_traitsIcESaIcEEES5_St4lessIS5_ESaISt4pairIKS5_S5_EEE4findERS9_
.LEHE123:
	movq	%rax, -72(%rbp)
	leaq	-80(%rbp), %rdx
	leaq	-72(%rbp), %rax
	movq	%rax, %rcx
	call	_ZStneRKSt17_Rb_tree_iteratorISt4pairIKNSt7__cxx1112basic_stringIcSt11char_traitsIcESaIcEEES6_EESB_
	testb	%al, %al
	je	.L347
	movl	$16, %ecx
	call	__cxa_allocate_exception
	movq	%rax, %rbx
	leaq	-32(%rbp), %rax
	movq	40(%rbp), %rdx
	movq	%rdx, %r8
	leaq	.LC43(%rip), %rdx
	movq	%rax, %rcx
.LEHB124:
	call	_ZStplIcSt11char_traitsIcESaIcEENSt7__cxx1112basic_stringIT_T0_T1_EEPKS5_RKS8_
.LEHE124:
	leaq	-64(%rbp), %rax
	leaq	-32(%rbp), %rdx
	leaq	.LC44(%rip), %r8
	movq	%rax, %rcx
.LEHB125:
	call	_ZStplIcSt11char_traitsIcESaIcEENSt7__cxx1112basic_stringIT_T0_T1_EEOS8_PKS5_
.LEHE125:
	leaq	-64(%rbp), %rax
	movq	%rax, %rdx
	movq	%rbx, %rcx
.LEHB126:
	call	_ZNSt13runtime_errorC1ERKNSt7__cxx1112basic_stringIcSt11char_traitsIcESaIcEEE
.LEHE126:
	leaq	-64(%rbp), %rax
	movq	%rax, %rcx
	call	_ZNSt7__cxx1112basic_stringIcSt11char_traitsIcESaIcEED1Ev
	leaq	-32(%rbp), %rax
	movq	%rax, %rcx
	call	_ZNSt7__cxx1112basic_stringIcSt11char_traitsIcESaIcEED1Ev
	movq	.refptr._ZNSt13runtime_errorD1Ev(%rip), %r8
	leaq	_ZTISt13runtime_error(%rip), %rax
	movq	%rax, %rdx
	movq	%rbx, %rcx
.LEHB127:
	call	__cxa_throw
.L347:
	movq	32(%rbp), %rax
	movq	40(%rbp), %rdx
	movq	%rax, %rcx
	call	_ZNSt3mapINSt7__cxx1112basic_stringIcSt11char_traitsIcESaIcEEES5_St4lessIS5_ESaISt4pairIKS5_S5_EEEixERS9_
	movq	%rax, %rcx
	movq	48(%rbp), %rax
	movq	%rax, %rdx
	call	_ZNSt7__cxx1112basic_stringIcSt11char_traitsIcESaIcEEaSERKS4_
	jmp	.L354
.L353:
	movq	%rax, %rsi
	leaq	-64(%rbp), %rax
	movq	%rax, %rcx
	call	_ZNSt7__cxx1112basic_stringIcSt11char_traitsIcESaIcEED1Ev
	jmp	.L349
.L352:
	movq	%rax, %rsi
.L349:
	leaq	-32(%rbp), %rax
	movq	%rax, %rcx
	call	_ZNSt7__cxx1112basic_stringIcSt11char_traitsIcESaIcEED1Ev
	jmp	.L350
.L351:
	movq	%rax, %rsi
.L350:
	movq	%rbx, %rcx
	call	__cxa_free_exception
	movq	%rsi, %rax
	movq	%rax, %rcx
	call	_Unwind_Resume
	nop
.LEHE127:
.L354:
	addq	$112, %rsp
	popq	%rbx
	popq	%rsi
	popq	%rbp
	ret
	.seh_handler	__gxx_personality_seh0, @unwind, @except
	.seh_handlerdata
.LLSDA3696:
	.byte	0xff
	.byte	0xff
	.byte	0x1
	.uleb128 .LLSDACSE3696-.LLSDACSB3696
.LLSDACSB3696:
	.uleb128 .LEHB123-.LFB3696
	.uleb128 .LEHE123-.LEHB123
	.uleb128 0
	.uleb128 0
	.uleb128 .LEHB124-.LFB3696
	.uleb128 .LEHE124-.LEHB124
	.uleb128 .L351-.LFB3696
	.uleb128 0
	.uleb128 .LEHB125-.LFB3696
	.uleb128 .LEHE125-.LEHB125
	.uleb128 .L352-.LFB3696
	.uleb128 0
	.uleb128 .LEHB126-.LFB3696
	.uleb128 .LEHE126-.LEHB126
	.uleb128 .L353-.LFB3696
	.uleb128 0
	.uleb128 .LEHB127-.LFB3696
	.uleb128 .LEHE127-.LEHB127
	.uleb128 0
	.uleb128 0
.LLSDACSE3696:
	.section	.text$_ZN11SymbolTable15declareVariableERKNSt7__cxx1112basic_stringIcSt11char_traitsIcESaIcEEES7_,"x"
	.linkonce discard
	.seh_endproc
	.section	.text$_ZNK11SymbolTable10isDeclaredERKNSt7__cxx1112basic_stringIcSt11char_traitsIcESaIcEEE,"x"
	.linkonce discard
	.align 2
	.globl	_ZNK11SymbolTable10isDeclaredERKNSt7__cxx1112basic_stringIcSt11char_traitsIcESaIcEEE
	.def	_ZNK11SymbolTable10isDeclaredERKNSt7__cxx1112basic_stringIcSt11char_traitsIcESaIcEEE;	.scl	2;	.type	32;	.endef
	.seh_proc	_ZNK11SymbolTable10isDeclaredERKNSt7__cxx1112basic_stringIcSt11char_traitsIcESaIcEEE
_ZNK11SymbolTable10isDeclaredERKNSt7__cxx1112basic_stringIcSt11char_traitsIcESaIcEEE:
.LFB3699:
	pushq	%rbp
	.seh_pushreg	%rbp
	movq	%rsp, %rbp
	.seh_setframe	%rbp, 0
	subq	$48, %rsp
	.seh_stackalloc	48
	.seh_endprologue
	movq	%rcx, 16(%rbp)
	movq	%rdx, 24(%rbp)
	movq	16(%rbp), %rax
	movq	%rax, %rcx
	call	_ZNKSt3mapINSt7__cxx1112basic_stringIcSt11char_traitsIcESaIcEEES5_St4lessIS5_ESaISt4pairIKS5_S5_EEE3endEv
	movq	%rax, -16(%rbp)
	movq	16(%rbp), %rax
	movq	24(%rbp), %rdx
	movq	%rax, %rcx
	call	_ZNKSt3mapINSt7__cxx1112basic_stringIcSt11char_traitsIcESaIcEEES5_St4lessIS5_ESaISt4pairIKS5_S5_EEE4findERS9_
	movq	%rax, -8(%rbp)
	leaq	-16(%rbp), %rdx
	leaq	-8(%rbp), %rax
	movq	%rax, %rcx
	call	_ZStneRKSt23_Rb_tree_const_iteratorISt4pairIKNSt7__cxx1112basic_stringIcSt11char_traitsIcESaIcEEES6_EESB_
	addq	$48, %rsp
	popq	%rbp
	ret
	.seh_endproc
	.section .rdata,"dr"
.LC45:
	.ascii "t\0"
	.section	.text$_ZN24IntermediateCodeGnerator7newTempB5cxx11Ev,"x"
	.linkonce discard
	.align 2
	.globl	_ZN24IntermediateCodeGnerator7newTempB5cxx11Ev
	.def	_ZN24IntermediateCodeGnerator7newTempB5cxx11Ev;	.scl	2;	.type	32;	.endef
	.seh_proc	_ZN24IntermediateCodeGnerator7newTempB5cxx11Ev
_ZN24IntermediateCodeGnerator7newTempB5cxx11Ev:
.LFB3700:
	pushq	%rbp
	.seh_pushreg	%rbp
	pushq	%rbx
	.seh_pushreg	%rbx
	subq	$72, %rsp
	.seh_stackalloc	72
	leaq	64(%rsp), %rbp
	.seh_setframe	%rbp, 64
	.seh_endprologue
	movq	%rcx, 32(%rbp)
	movq	%rdx, 40(%rbp)
	movq	40(%rbp), %rax
	movl	24(%rax), %eax
	leal	1(%rax), %ecx
	movq	40(%rbp), %rdx
	movl	%ecx, 24(%rdx)
	leaq	-32(%rbp), %rcx
	movl	%eax, %edx
	call	_ZNSt7__cxx119to_stringEi
	movq	32(%rbp), %rax
	leaq	-32(%rbp), %rdx
	movq	%rdx, %r8
	leaq	.LC45(%rip), %rdx
	movq	%rax, %rcx
.LEHB128:
	call	_ZStplIcSt11char_traitsIcESaIcEENSt7__cxx1112basic_stringIT_T0_T1_EEPKS5_OS8_
.LEHE128:
	nop
	leaq	-32(%rbp), %rax
	movq	%rax, %rcx
	call	_ZNSt7__cxx1112basic_stringIcSt11char_traitsIcESaIcEED1Ev
	jmp	.L361
.L360:
	movq	%rax, %rbx
	leaq	-32(%rbp), %rax
	movq	%rax, %rcx
	call	_ZNSt7__cxx1112basic_stringIcSt11char_traitsIcESaIcEED1Ev
	movq	%rbx, %rax
	movq	%rax, %rcx
.LEHB129:
	call	_Unwind_Resume
.LEHE129:
.L361:
	movq	32(%rbp), %rax
	addq	$72, %rsp
	popq	%rbx
	popq	%rbp
	ret
	.seh_handler	__gxx_personality_seh0, @unwind, @except
	.seh_handlerdata
.LLSDA3700:
	.byte	0xff
	.byte	0xff
	.byte	0x1
	.uleb128 .LLSDACSE3700-.LLSDACSB3700
.LLSDACSB3700:
	.uleb128 .LEHB128-.LFB3700
	.uleb128 .LEHE128-.LEHB128
	.uleb128 .L360-.LFB3700
	.uleb128 0
	.uleb128 .LEHB129-.LFB3700
	.uleb128 .LEHE129-.LEHB129
	.uleb128 0
	.uleb128 0
.LLSDACSE3700:
	.section	.text$_ZN24IntermediateCodeGnerator7newTempB5cxx11Ev,"x"
	.linkonce discard
	.seh_endproc
	.section	.text$_ZN24IntermediateCodeGnerator14addInstructionERKNSt7__cxx1112basic_stringIcSt11char_traitsIcESaIcEEE,"x"
	.linkonce discard
	.align 2
	.globl	_ZN24IntermediateCodeGnerator14addInstructionERKNSt7__cxx1112basic_stringIcSt11char_traitsIcESaIcEEE
	.def	_ZN24IntermediateCodeGnerator14addInstructionERKNSt7__cxx1112basic_stringIcSt11char_traitsIcESaIcEEE;	.scl	2;	.type	32;	.endef
	.seh_proc	_ZN24IntermediateCodeGnerator14addInstructionERKNSt7__cxx1112basic_stringIcSt11char_traitsIcESaIcEEE
_ZN24IntermediateCodeGnerator14addInstructionERKNSt7__cxx1112basic_stringIcSt11char_traitsIcESaIcEEE:
.LFB3701:
	pushq	%rbp
	.seh_pushreg	%rbp
	movq	%rsp, %rbp
	.seh_setframe	%rbp, 0
	subq	$32, %rsp
	.seh_stackalloc	32
	.seh_endprologue
	movq	%rcx, 16(%rbp)
	movq	%rdx, 24(%rbp)
	movq	16(%rbp), %rax
	movq	24(%rbp), %rdx
	movq	%rax, %rcx
	call	_ZNSt6vectorINSt7__cxx1112basic_stringIcSt11char_traitsIcESaIcEEESaIS5_EE9push_backERKS5_
	nop
	addq	$32, %rsp
	popq	%rbp
	ret
	.seh_endproc
	.section	.text$_ZN24IntermediateCodeGnerator17printInstructionsEv,"x"
	.linkonce discard
	.align 2
	.globl	_ZN24IntermediateCodeGnerator17printInstructionsEv
	.def	_ZN24IntermediateCodeGnerator17printInstructionsEv;	.scl	2;	.type	32;	.endef
	.seh_proc	_ZN24IntermediateCodeGnerator17printInstructionsEv
_ZN24IntermediateCodeGnerator17printInstructionsEv:
.LFB3702:
	pushq	%rbp
	.seh_pushreg	%rbp
	movq	%rsp, %rbp
	.seh_setframe	%rbp, 0
	subq	$64, %rsp
	.seh_stackalloc	64
	.seh_endprologue
	movq	%rcx, 16(%rbp)
	movq	16(%rbp), %rax
	movq	%rax, -8(%rbp)
	movq	-8(%rbp), %rax
	movq	%rax, %rcx
	call	_ZNSt6vectorINSt7__cxx1112basic_stringIcSt11char_traitsIcESaIcEEESaIS5_EE5beginEv
	movq	%rax, -24(%rbp)
	movq	-8(%rbp), %rax
	movq	%rax, %rcx
	call	_ZNSt6vectorINSt7__cxx1112basic_stringIcSt11char_traitsIcESaIcEEESaIS5_EE3endEv
	movq	%rax, -32(%rbp)
	jmp	.L364
.L365:
	leaq	-24(%rbp), %rax
	movq	%rax, %rcx
	call	_ZNK9__gnu_cxx17__normal_iteratorIPNSt7__cxx1112basic_stringIcSt11char_traitsIcESaIcEEESt6vectorIS6_SaIS6_EEEdeEv
	movq	%rax, -16(%rbp)
	movq	-16(%rbp), %rax
	movq	%rax, %rdx
	movq	.refptr._ZSt4cout(%rip), %rax
	movq	%rax, %rcx
	call	_ZStlsIcSt11char_traitsIcESaIcEERSt13basic_ostreamIT_T0_ES7_RKNSt7__cxx1112basic_stringIS4_S5_T1_EE
	movq	%rax, %rcx
	movq	.refptr._ZSt4endlIcSt11char_traitsIcEERSt13basic_ostreamIT_T0_ES6_(%rip), %rax
	movq	%rax, %rdx
	call	_ZNSolsEPFRSoS_E
	leaq	-24(%rbp), %rax
	movq	%rax, %rcx
	call	_ZN9__gnu_cxx17__normal_iteratorIPNSt7__cxx1112basic_stringIcSt11char_traitsIcESaIcEEESt6vectorIS6_SaIS6_EEEppEv
.L364:
	leaq	-32(%rbp), %rdx
	leaq	-24(%rbp), %rax
	movq	%rax, %rcx
	call	_ZN9__gnu_cxxneIPNSt7__cxx1112basic_stringIcSt11char_traitsIcESaIcEEESt6vectorIS6_SaIS6_EEEEbRKNS_17__normal_iteratorIT_T0_EESG_
	testb	%al, %al
	jne	.L365
	nop
	nop
	addq	$64, %rsp
	popq	%rbp
	ret
	.seh_endproc
	.section	.text$_ZN24IntermediateCodeGnerator15getInstructionsB5cxx11Ev,"x"
	.linkonce discard
	.align 2
	.globl	_ZN24IntermediateCodeGnerator15getInstructionsB5cxx11Ev
	.def	_ZN24IntermediateCodeGnerator15getInstructionsB5cxx11Ev;	.scl	2;	.type	32;	.endef
	.seh_proc	_ZN24IntermediateCodeGnerator15getInstructionsB5cxx11Ev
_ZN24IntermediateCodeGnerator15getInstructionsB5cxx11Ev:
.LFB3703:
	pushq	%rbp
	.seh_pushreg	%rbp
	movq	%rsp, %rbp
	.seh_setframe	%rbp, 0
	subq	$32, %rsp
	.seh_stackalloc	32
	.seh_endprologue
	movq	%rcx, 16(%rbp)
	movq	%rdx, 24(%rbp)
	movq	24(%rbp), %rdx
	movq	16(%rbp), %rax
	movq	%rax, %rcx
	call	_ZNSt6vectorINSt7__cxx1112basic_stringIcSt11char_traitsIcESaIcEEESaIS5_EEC1ERKS7_
	movq	16(%rbp), %rax
	addq	$32, %rsp
	popq	%rbp
	ret
	.seh_endproc
	.section	.text$_ZN6ParserC1ERKSt6vectorI5TokenSaIS1_EER11SymbolTableR24IntermediateCodeGnerator,"x"
	.linkonce discard
	.align 2
	.globl	_ZN6ParserC1ERKSt6vectorI5TokenSaIS1_EER11SymbolTableR24IntermediateCodeGnerator
	.def	_ZN6ParserC1ERKSt6vectorI5TokenSaIS1_EER11SymbolTableR24IntermediateCodeGnerator;	.scl	2;	.type	32;	.endef
	.seh_proc	_ZN6ParserC1ERKSt6vectorI5TokenSaIS1_EER11SymbolTableR24IntermediateCodeGnerator
_ZN6ParserC1ERKSt6vectorI5TokenSaIS1_EER11SymbolTableR24IntermediateCodeGnerator:
.LFB3706:
	pushq	%rbp
	.seh_pushreg	%rbp
	movq	%rsp, %rbp
	.seh_setframe	%rbp, 0
	subq	$32, %rsp
	.seh_stackalloc	32
	.seh_endprologue
	movq	%rcx, 16(%rbp)
	movq	%rdx, 24(%rbp)
	movq	%r8, 32(%rbp)
	movq	%r9, 40(%rbp)
	movq	16(%rbp), %rax
	movq	24(%rbp), %rdx
	movq	%rax, %rcx
	call	_ZNSt6vectorI5TokenSaIS0_EEC1ERKS2_
	movq	16(%rbp), %rax
	movq	$0, 24(%rax)
	movq	16(%rbp), %rax
	movq	32(%rbp), %rdx
	movq	%rdx, 32(%rax)
	movq	16(%rbp), %rax
	movq	40(%rbp), %rdx
	movq	%rdx, 40(%rax)
	nop
	addq	$32, %rsp
	popq	%rbp
	ret
	.seh_endproc
	.section .rdata,"dr"
	.align 8
.LC46:
	.ascii "Parsing completed successfully! No Syntax Error\0"
	.section	.text$_ZN6Parser12parseProgramEv,"x"
	.linkonce discard
	.align 2
	.globl	_ZN6Parser12parseProgramEv
	.def	_ZN6Parser12parseProgramEv;	.scl	2;	.type	32;	.endef
	.seh_proc	_ZN6Parser12parseProgramEv
_ZN6Parser12parseProgramEv:
.LFB3707:
	pushq	%rbp
	.seh_pushreg	%rbp
	movq	%rsp, %rbp
	.seh_setframe	%rbp, 0
	subq	$32, %rsp
	.seh_stackalloc	32
	.seh_endprologue
	movq	%rcx, 16(%rbp)
	jmp	.L370
.L371:
	movq	16(%rbp), %rax
	movq	%rax, %rcx
	call	_ZN6Parser14parseStatementEv
.L370:
	movq	16(%rbp), %rax
	movq	16(%rbp), %rdx
	movq	24(%rdx), %rdx
	movq	%rax, %rcx
	call	_ZNSt6vectorI5TokenSaIS0_EEixEy
	movl	(%rax), %eax
	cmpl	$38, %eax
	setne	%al
	testb	%al, %al
	jne	.L371
	leaq	.LC46(%rip), %rax
	movq	%rax, %rdx
	movq	.refptr._ZSt4cout(%rip), %rax
	movq	%rax, %rcx
	call	_ZStlsISt11char_traitsIcEERSt13basic_ostreamIcT_ES5_PKc
	movq	%rax, %rcx
	movq	.refptr._ZSt4endlIcSt11char_traitsIcEERSt13basic_ostreamIT_T0_ES6_(%rip), %rax
	movq	%rax, %rdx
	call	_ZNSolsEPFRSoS_E
	movq	16(%rbp), %rax
	movq	40(%rax), %rax
	movq	%rax, %rcx
	call	_ZN24IntermediateCodeGnerator17printInstructionsEv
	nop
	addq	$32, %rsp
	popq	%rbp
	ret
	.seh_endproc
	.section	.text$_ZN6Parser19getIntermediateCodeB5cxx11Ev,"x"
	.linkonce discard
	.align 2
	.globl	_ZN6Parser19getIntermediateCodeB5cxx11Ev
	.def	_ZN6Parser19getIntermediateCodeB5cxx11Ev;	.scl	2;	.type	32;	.endef
	.seh_proc	_ZN6Parser19getIntermediateCodeB5cxx11Ev
_ZN6Parser19getIntermediateCodeB5cxx11Ev:
.LFB3708:
	pushq	%rbp
	.seh_pushreg	%rbp
	movq	%rsp, %rbp
	.seh_setframe	%rbp, 0
	subq	$32, %rsp
	.seh_stackalloc	32
	.seh_endprologue
	movq	%rcx, 16(%rbp)
	movq	%rdx, 24(%rbp)
	movq	24(%rbp), %rax
	movq	40(%rax), %rdx
	movq	16(%rbp), %rax
	movq	%rax, %rcx
	call	_ZN24IntermediateCodeGnerator15getInstructionsB5cxx11Ev
	movq	16(%rbp), %rax
	addq	$32, %rsp
	popq	%rbp
	ret
	.seh_endproc
	.section .rdata,"dr"
	.align 8
.LC47:
	.ascii "Syntax error: unexpected token \0"
.LC48:
	.ascii " on line \0"
	.section	.text$_ZN6Parser14parseStatementEv,"x"
	.linkonce discard
	.align 2
	.globl	_ZN6Parser14parseStatementEv
	.def	_ZN6Parser14parseStatementEv;	.scl	2;	.type	32;	.endef
	.seh_proc	_ZN6Parser14parseStatementEv
_ZN6Parser14parseStatementEv:
.LFB3709:
	pushq	%rbp
	.seh_pushreg	%rbp
	pushq	%rbx
	.seh_pushreg	%rbx
	subq	$72, %rsp
	.seh_stackalloc	72
	leaq	64(%rsp), %rbp
	.seh_setframe	%rbp, 64
	.seh_endprologue
	movq	%rcx, 32(%rbp)
	movq	32(%rbp), %rax
	movq	32(%rbp), %rdx
	movq	24(%rdx), %rdx
	movq	%rax, %rcx
	call	_ZNSt6vectorI5TokenSaIS0_EEixEy
	movl	(%rax), %eax
	testl	%eax, %eax
	je	.L375
	movq	32(%rbp), %rax
	movq	32(%rbp), %rdx
	movq	24(%rdx), %rdx
	movq	%rax, %rcx
	call	_ZNSt6vectorI5TokenSaIS0_EEixEy
	movl	(%rax), %eax
	cmpl	$1, %eax
	je	.L375
	movq	32(%rbp), %rax
	movq	32(%rbp), %rdx
	movq	24(%rdx), %rdx
	movq	%rax, %rcx
	call	_ZNSt6vectorI5TokenSaIS0_EEixEy
	movl	(%rax), %eax
	cmpl	$2, %eax
	je	.L375
	movq	32(%rbp), %rax
	movq	32(%rbp), %rdx
	movq	24(%rdx), %rdx
	movq	%rax, %rcx
	call	_ZNSt6vectorI5TokenSaIS0_EEixEy
	movl	(%rax), %eax
	cmpl	$3, %eax
	je	.L375
	movq	32(%rbp), %rax
	movq	32(%rbp), %rdx
	movq	24(%rdx), %rdx
	movq	%rax, %rcx
	call	_ZNSt6vectorI5TokenSaIS0_EEixEy
	movl	(%rax), %eax
	cmpl	$4, %eax
	je	.L375
	movq	32(%rbp), %rax
	movq	32(%rbp), %rdx
	movq	24(%rdx), %rdx
	movq	%rax, %rcx
	call	_ZNSt6vectorI5TokenSaIS0_EEixEy
	movl	(%rax), %eax
	cmpl	$5, %eax
	jne	.L376
.L375:
	movl	$1, %eax
	jmp	.L377
.L376:
	movl	$0, %eax
.L377:
	testb	%al, %al
	je	.L378
	movq	32(%rbp), %rax
	movq	%rax, %rcx
	call	_ZN6Parser16parseDeclarationEv
	jmp	.L374
.L378:
	movq	32(%rbp), %rax
	movq	32(%rbp), %rdx
	movq	24(%rdx), %rdx
	movq	%rax, %rcx
	call	_ZNSt6vectorI5TokenSaIS0_EEixEy
	movl	(%rax), %eax
	cmpl	$8, %eax
	sete	%al
	testb	%al, %al
	je	.L380
	leaq	-32(%rbp), %rax
	movq	32(%rbp), %rdx
	movq	%rax, %rcx
	call	_ZN6Parser15parseAssignmentB5cxx11Ev
	leaq	-32(%rbp), %rax
	movq	%rax, %rcx
	call	_ZNSt7__cxx1112basic_stringIcSt11char_traitsIcESaIcEED1Ev
	jmp	.L374
.L380:
	movq	32(%rbp), %rax
	movq	32(%rbp), %rdx
	movq	24(%rdx), %rdx
	movq	%rax, %rcx
	call	_ZNSt6vectorI5TokenSaIS0_EEixEy
	movl	(%rax), %eax
	cmpl	$10, %eax
	sete	%al
	testb	%al, %al
	je	.L381
	movq	32(%rbp), %rax
	movq	%rax, %rcx
	call	_ZN6Parser16parseIfStatementEv
	jmp	.L374
.L381:
	movq	32(%rbp), %rax
	movq	32(%rbp), %rdx
	movq	24(%rdx), %rdx
	movq	%rax, %rcx
	call	_ZNSt6vectorI5TokenSaIS0_EEixEy
	movl	(%rax), %eax
	cmpl	$13, %eax
	sete	%al
	testb	%al, %al
	je	.L382
	movq	32(%rbp), %rax
	movq	%rax, %rcx
	call	_ZN6Parser19parseWhileStatementEv
	jmp	.L374
.L382:
	movq	32(%rbp), %rax
	movq	32(%rbp), %rdx
	movq	24(%rdx), %rdx
	movq	%rax, %rcx
	call	_ZNSt6vectorI5TokenSaIS0_EEixEy
	movl	(%rax), %eax
	cmpl	$14, %eax
	sete	%al
	testb	%al, %al
	je	.L383
	movq	32(%rbp), %rax
	movq	%rax, %rcx
	call	_ZN6Parser17parseForStatementEv
	jmp	.L374
.L383:
	movq	32(%rbp), %rax
	movq	32(%rbp), %rdx
	movq	24(%rdx), %rdx
	movq	%rax, %rcx
	call	_ZNSt6vectorI5TokenSaIS0_EEixEy
	movl	(%rax), %eax
	cmpl	$15, %eax
	sete	%al
	testb	%al, %al
	je	.L384
	movq	32(%rbp), %rax
	movq	%rax, %rcx
	call	_ZN6Parser20parseSwitchStatementEv
	jmp	.L374
.L384:
	movq	32(%rbp), %rax
	movq	32(%rbp), %rdx
	movq	24(%rdx), %rdx
	movq	%rax, %rcx
	call	_ZNSt6vectorI5TokenSaIS0_EEixEy
	movl	(%rax), %eax
	cmpl	$12, %eax
	sete	%al
	testb	%al, %al
	je	.L385
	movq	32(%rbp), %rax
	movq	%rax, %rcx
	call	_ZN6Parser20parseReturnStatementEv
	jmp	.L374
.L385:
	movq	32(%rbp), %rax
	movq	32(%rbp), %rdx
	movq	24(%rdx), %rdx
	movq	%rax, %rcx
	call	_ZNSt6vectorI5TokenSaIS0_EEixEy
	movl	(%rax), %eax
	cmpl	$40, %eax
	sete	%al
	testb	%al, %al
	je	.L386
	movq	32(%rbp), %rax
	movq	%rax, %rcx
	call	_ZN6Parser19parsePrintStatementEv
	jmp	.L374
.L386:
	movq	32(%rbp), %rax
	movq	32(%rbp), %rdx
	movq	24(%rdx), %rdx
	movq	%rax, %rcx
	call	_ZNSt6vectorI5TokenSaIS0_EEixEy
	movl	(%rax), %eax
	cmpl	$34, %eax
	sete	%al
	testb	%al, %al
	je	.L387
	movq	32(%rbp), %rax
	movq	%rax, %rcx
	call	_ZN6Parser10parseBlockEv
	jmp	.L374
.L387:
	leaq	.LC47(%rip), %rax
	movq	%rax, %rdx
	movq	.refptr._ZSt4cout(%rip), %rax
	movq	%rax, %rcx
	call	_ZStlsISt11char_traitsIcEERSt13basic_ostreamIcT_ES5_PKc
	movq	%rax, %rbx
	movq	32(%rbp), %rax
	movq	32(%rbp), %rdx
	movq	24(%rdx), %rdx
	movq	%rax, %rcx
	call	_ZNSt6vectorI5TokenSaIS0_EEixEy
	addq	$8, %rax
	movq	%rax, %rdx
	movq	%rbx, %rcx
	call	_ZStlsIcSt11char_traitsIcESaIcEERSt13basic_ostreamIT_T0_ES7_RKNSt7__cxx1112basic_stringIS4_S5_T1_EE
	movq	%rax, %rcx
	leaq	.LC48(%rip), %rax
	movq	%rax, %rdx
	call	_ZStlsISt11char_traitsIcEERSt13basic_ostreamIcT_ES5_PKc
	movq	%rax, %rbx
	movq	32(%rbp), %rax
	movq	32(%rbp), %rdx
	movq	24(%rdx), %rdx
	movq	%rax, %rcx
	call	_ZNSt6vectorI5TokenSaIS0_EEixEy
	movl	40(%rax), %eax
	movl	%eax, %edx
	movq	%rbx, %rcx
	call	_ZNSolsEi
	movq	%rax, %rcx
	movq	.refptr._ZSt4endlIcSt11char_traitsIcEERSt13basic_ostreamIT_T0_ES6_(%rip), %rax
	movq	%rax, %rdx
	call	_ZNSolsEPFRSoS_E
	movl	$1, %ecx
	call	exit
	nop
.L374:
	addq	$72, %rsp
	popq	%rbx
	popq	%rbp
	ret
	.seh_endproc
	.section .rdata,"dr"
.LC49:
	.ascii "ifFalse \0"
.LC50:
	.ascii " goto \0"
.LC51:
	.ascii "goto \0"
	.section	.text$_ZN6Parser19parseWhileStatementEv,"x"
	.linkonce discard
	.align 2
	.globl	_ZN6Parser19parseWhileStatementEv
	.def	_ZN6Parser19parseWhileStatementEv;	.scl	2;	.type	32;	.endef
	.seh_proc	_ZN6Parser19parseWhileStatementEv
_ZN6Parser19parseWhileStatementEv:
.LFB3710:
	pushq	%rbp
	.seh_pushreg	%rbp
	pushq	%rbx
	.seh_pushreg	%rbx
	subq	$328, %rsp
	.seh_stackalloc	328
	leaq	128(%rsp), %rbp
	.seh_setframe	%rbp, 128
	.seh_endprologue
	movq	%rcx, 224(%rbp)
	movq	224(%rbp), %rax
	movl	$13, %edx
	movq	%rax, %rcx
.LEHB130:
	call	_ZN6Parser6expectE9TokenType
	movq	224(%rbp), %rax
	movl	$32, %edx
	movq	%rax, %rcx
	call	_ZN6Parser6expectE9TokenType
	leaq	-32(%rbp), %rax
	movq	224(%rbp), %rdx
	movq	%rax, %rcx
	call	_ZN6Parser15parseExpressionB5cxx11Ev
.LEHE130:
	movq	224(%rbp), %rax
	movl	$33, %edx
	movq	%rax, %rcx
.LEHB131:
	call	_ZN6Parser6expectE9TokenType
	movq	224(%rbp), %rax
	movl	$34, %edx
	movq	%rax, %rcx
	call	_ZN6Parser6expectE9TokenType
	movq	224(%rbp), %rax
	movq	40(%rax), %rdx
	leaq	-64(%rbp), %rax
	movq	%rax, %rcx
	call	_ZN24IntermediateCodeGnerator7newTempB5cxx11Ev
.LEHE131:
	movq	224(%rbp), %rax
	movq	40(%rax), %rdx
	leaq	-96(%rbp), %rax
	movq	%rax, %rcx
.LEHB132:
	call	_ZN24IntermediateCodeGnerator7newTempB5cxx11Ev
.LEHE132:
	movq	224(%rbp), %rax
	movq	40(%rax), %rbx
	movq	%rbp, %rax
	leaq	-64(%rbp), %rdx
	leaq	.LC39(%rip), %r8
	movq	%rax, %rcx
.LEHB133:
	call	_ZStplIcSt11char_traitsIcESaIcEENSt7__cxx1112basic_stringIT_T0_T1_EERKS8_PKS5_
.LEHE133:
	movq	%rbp, %rax
	movq	%rax, %rdx
	movq	%rbx, %rcx
.LEHB134:
	call	_ZN24IntermediateCodeGnerator14addInstructionERKNSt7__cxx1112basic_stringIcSt11char_traitsIcESaIcEEE
.LEHE134:
	movq	%rbp, %rax
	movq	%rax, %rcx
	call	_ZNSt7__cxx1112basic_stringIcSt11char_traitsIcESaIcEED1Ev
	movq	224(%rbp), %rax
	movq	40(%rax), %rbx
	leaq	96(%rbp), %rax
	leaq	-32(%rbp), %rdx
	movq	%rdx, %r8
	leaq	.LC49(%rip), %rdx
	movq	%rax, %rcx
.LEHB135:
	call	_ZStplIcSt11char_traitsIcESaIcEENSt7__cxx1112basic_stringIT_T0_T1_EEPKS5_RKS8_
.LEHE135:
	leaq	64(%rbp), %rax
	leaq	96(%rbp), %rdx
	leaq	.LC50(%rip), %r8
	movq	%rax, %rcx
.LEHB136:
	call	_ZStplIcSt11char_traitsIcESaIcEENSt7__cxx1112basic_stringIT_T0_T1_EEOS8_PKS5_
.LEHE136:
	leaq	32(%rbp), %rax
	leaq	-96(%rbp), %rcx
	leaq	64(%rbp), %rdx
	movq	%rcx, %r8
	movq	%rax, %rcx
.LEHB137:
	call	_ZStplIcSt11char_traitsIcESaIcEENSt7__cxx1112basic_stringIT_T0_T1_EEOS8_RKS8_
.LEHE137:
	leaq	32(%rbp), %rax
	movq	%rax, %rdx
	movq	%rbx, %rcx
.LEHB138:
	call	_ZN24IntermediateCodeGnerator14addInstructionERKNSt7__cxx1112basic_stringIcSt11char_traitsIcESaIcEEE
.LEHE138:
	leaq	32(%rbp), %rax
	movq	%rax, %rcx
	call	_ZNSt7__cxx1112basic_stringIcSt11char_traitsIcESaIcEED1Ev
	leaq	64(%rbp), %rax
	movq	%rax, %rcx
	call	_ZNSt7__cxx1112basic_stringIcSt11char_traitsIcESaIcEED1Ev
	leaq	96(%rbp), %rax
	movq	%rax, %rcx
	call	_ZNSt7__cxx1112basic_stringIcSt11char_traitsIcESaIcEED1Ev
	jmp	.L389
.L390:
	movq	224(%rbp), %rax
	movq	%rax, %rcx
.LEHB139:
	call	_ZN6Parser14parseStatementEv
.L389:
	movq	224(%rbp), %rax
	movq	224(%rbp), %rdx
	movq	24(%rdx), %rdx
	movq	%rax, %rcx
	call	_ZNSt6vectorI5TokenSaIS0_EEixEy
	movl	(%rax), %eax
	cmpl	$35, %eax
	setne	%al
	testb	%al, %al
	jne	.L390
	movq	224(%rbp), %rax
	movq	40(%rax), %rbx
	leaq	128(%rbp), %rax
	leaq	-64(%rbp), %rdx
	movq	%rdx, %r8
	leaq	.LC51(%rip), %rdx
	movq	%rax, %rcx
	call	_ZStplIcSt11char_traitsIcESaIcEENSt7__cxx1112basic_stringIT_T0_T1_EEPKS5_RKS8_
.LEHE139:
	leaq	128(%rbp), %rax
	movq	%rax, %rdx
	movq	%rbx, %rcx
.LEHB140:
	call	_ZN24IntermediateCodeGnerator14addInstructionERKNSt7__cxx1112basic_stringIcSt11char_traitsIcESaIcEEE
.LEHE140:
	leaq	128(%rbp), %rax
	movq	%rax, %rcx
	call	_ZNSt7__cxx1112basic_stringIcSt11char_traitsIcESaIcEED1Ev
	movq	224(%rbp), %rax
	movq	40(%rax), %rbx
	leaq	160(%rbp), %rax
	leaq	-96(%rbp), %rdx
	leaq	.LC39(%rip), %r8
	movq	%rax, %rcx
.LEHB141:
	call	_ZStplIcSt11char_traitsIcESaIcEENSt7__cxx1112basic_stringIT_T0_T1_EERKS8_PKS5_
.LEHE141:
	leaq	160(%rbp), %rax
	movq	%rax, %rdx
	movq	%rbx, %rcx
.LEHB142:
	call	_ZN24IntermediateCodeGnerator14addInstructionERKNSt7__cxx1112basic_stringIcSt11char_traitsIcESaIcEEE
.LEHE142:
	leaq	160(%rbp), %rax
	movq	%rax, %rcx
	call	_ZNSt7__cxx1112basic_stringIcSt11char_traitsIcESaIcEED1Ev
	movq	224(%rbp), %rax
	movl	$35, %edx
	movq	%rax, %rcx
.LEHB143:
	call	_ZN6Parser6expectE9TokenType
.LEHE143:
	leaq	-96(%rbp), %rax
	movq	%rax, %rcx
	call	_ZNSt7__cxx1112basic_stringIcSt11char_traitsIcESaIcEED1Ev
	leaq	-64(%rbp), %rax
	movq	%rax, %rcx
	call	_ZNSt7__cxx1112basic_stringIcSt11char_traitsIcESaIcEED1Ev
	leaq	-32(%rbp), %rax
	movq	%rax, %rcx
	call	_ZNSt7__cxx1112basic_stringIcSt11char_traitsIcESaIcEED1Ev
	jmp	.L409
.L402:
	movq	%rax, %rbx
	movq	%rbp, %rax
	movq	%rax, %rcx
	call	_ZNSt7__cxx1112basic_stringIcSt11char_traitsIcESaIcEED1Ev
	jmp	.L392
.L406:
	movq	%rax, %rbx
	leaq	32(%rbp), %rax
	movq	%rax, %rcx
	call	_ZNSt7__cxx1112basic_stringIcSt11char_traitsIcESaIcEED1Ev
	jmp	.L394
.L405:
	movq	%rax, %rbx
.L394:
	leaq	64(%rbp), %rax
	movq	%rax, %rcx
	call	_ZNSt7__cxx1112basic_stringIcSt11char_traitsIcESaIcEED1Ev
	jmp	.L395
.L404:
	movq	%rax, %rbx
.L395:
	leaq	96(%rbp), %rax
	movq	%rax, %rcx
	call	_ZNSt7__cxx1112basic_stringIcSt11char_traitsIcESaIcEED1Ev
	jmp	.L392
.L407:
	movq	%rax, %rbx
	leaq	128(%rbp), %rax
	movq	%rax, %rcx
	call	_ZNSt7__cxx1112basic_stringIcSt11char_traitsIcESaIcEED1Ev
	jmp	.L392
.L408:
	movq	%rax, %rbx
	leaq	160(%rbp), %rax
	movq	%rax, %rcx
	call	_ZNSt7__cxx1112basic_stringIcSt11char_traitsIcESaIcEED1Ev
	jmp	.L392
.L403:
	movq	%rax, %rbx
.L392:
	leaq	-96(%rbp), %rax
	movq	%rax, %rcx
	call	_ZNSt7__cxx1112basic_stringIcSt11char_traitsIcESaIcEED1Ev
	jmp	.L398
.L401:
	movq	%rax, %rbx
.L398:
	leaq	-64(%rbp), %rax
	movq	%rax, %rcx
	call	_ZNSt7__cxx1112basic_stringIcSt11char_traitsIcESaIcEED1Ev
	jmp	.L399
.L400:
	movq	%rax, %rbx
.L399:
	leaq	-32(%rbp), %rax
	movq	%rax, %rcx
	call	_ZNSt7__cxx1112basic_stringIcSt11char_traitsIcESaIcEED1Ev
	movq	%rbx, %rax
	movq	%rax, %rcx
.LEHB144:
	call	_Unwind_Resume
	nop
.LEHE144:
.L409:
	addq	$328, %rsp
	popq	%rbx
	popq	%rbp
	ret
	.seh_handler	__gxx_personality_seh0, @unwind, @except
	.seh_handlerdata
.LLSDA3710:
	.byte	0xff
	.byte	0xff
	.byte	0x1
	.uleb128 .LLSDACSE3710-.LLSDACSB3710
.LLSDACSB3710:
	.uleb128 .LEHB130-.LFB3710
	.uleb128 .LEHE130-.LEHB130
	.uleb128 0
	.uleb128 0
	.uleb128 .LEHB131-.LFB3710
	.uleb128 .LEHE131-.LEHB131
	.uleb128 .L400-.LFB3710
	.uleb128 0
	.uleb128 .LEHB132-.LFB3710
	.uleb128 .LEHE132-.LEHB132
	.uleb128 .L401-.LFB3710
	.uleb128 0
	.uleb128 .LEHB133-.LFB3710
	.uleb128 .LEHE133-.LEHB133
	.uleb128 .L403-.LFB3710
	.uleb128 0
	.uleb128 .LEHB134-.LFB3710
	.uleb128 .LEHE134-.LEHB134
	.uleb128 .L402-.LFB3710
	.uleb128 0
	.uleb128 .LEHB135-.LFB3710
	.uleb128 .LEHE135-.LEHB135
	.uleb128 .L403-.LFB3710
	.uleb128 0
	.uleb128 .LEHB136-.LFB3710
	.uleb128 .LEHE136-.LEHB136
	.uleb128 .L404-.LFB3710
	.uleb128 0
	.uleb128 .LEHB137-.LFB3710
	.uleb128 .LEHE137-.LEHB137
	.uleb128 .L405-.LFB3710
	.uleb128 0
	.uleb128 .LEHB138-.LFB3710
	.uleb128 .LEHE138-.LEHB138
	.uleb128 .L406-.LFB3710
	.uleb128 0
	.uleb128 .LEHB139-.LFB3710
	.uleb128 .LEHE139-.LEHB139
	.uleb128 .L403-.LFB3710
	.uleb128 0
	.uleb128 .LEHB140-.LFB3710
	.uleb128 .LEHE140-.LEHB140
	.uleb128 .L407-.LFB3710
	.uleb128 0
	.uleb128 .LEHB141-.LFB3710
	.uleb128 .LEHE141-.LEHB141
	.uleb128 .L403-.LFB3710
	.uleb128 0
	.uleb128 .LEHB142-.LFB3710
	.uleb128 .LEHE142-.LEHB142
	.uleb128 .L408-.LFB3710
	.uleb128 0
	.uleb128 .LEHB143-.LFB3710
	.uleb128 .LEHE143-.LEHB143
	.uleb128 .L403-.LFB3710
	.uleb128 0
	.uleb128 .LEHB144-.LFB3710
	.uleb128 .LEHE144-.LEHB144
	.uleb128 0
	.uleb128 0
.LLSDACSE3710:
	.section	.text$_ZN6Parser19parseWhileStatementEv,"x"
	.linkonce discard
	.seh_endproc
	.section	.text$_ZN6Parser17parseForStatementEv,"x"
	.linkonce discard
	.align 2
	.globl	_ZN6Parser17parseForStatementEv
	.def	_ZN6Parser17parseForStatementEv;	.scl	2;	.type	32;	.endef
	.seh_proc	_ZN6Parser17parseForStatementEv
_ZN6Parser17parseForStatementEv:
.LFB3711:
	pushq	%rbp
	.seh_pushreg	%rbp
	pushq	%rbx
	.seh_pushreg	%rbx
	subq	$360, %rsp
	.seh_stackalloc	360
	leaq	128(%rsp), %rbp
	.seh_setframe	%rbp, 128
	.seh_endprologue
	movq	%rcx, 256(%rbp)
	movq	256(%rbp), %rax
	movl	$14, %edx
	movq	%rax, %rcx
.LEHB145:
	call	_ZN6Parser6expectE9TokenType
	movq	256(%rbp), %rax
	movl	$32, %edx
	movq	%rax, %rcx
	call	_ZN6Parser6expectE9TokenType
	movq	256(%rbp), %rax
	movq	%rax, %rcx
	call	_ZN6Parser16parseDeclarationEv
	movq	256(%rbp), %rax
	movl	$36, %edx
	movq	%rax, %rcx
	call	_ZN6Parser6expectE9TokenType
	movq	%rbp, %rax
	movq	256(%rbp), %rdx
	movq	%rax, %rcx
	call	_ZN6Parser15parseExpressionB5cxx11Ev
.LEHE145:
	movq	256(%rbp), %rax
	movl	$36, %edx
	movq	%rax, %rcx
.LEHB146:
	call	_ZN6Parser6expectE9TokenType
	leaq	-32(%rbp), %rax
	movq	256(%rbp), %rdx
	movq	%rax, %rcx
	call	_ZN6Parser15parseAssignmentB5cxx11Ev
.LEHE146:
	movq	256(%rbp), %rax
	movl	$33, %edx
	movq	%rax, %rcx
.LEHB147:
	call	_ZN6Parser6expectE9TokenType
	movq	256(%rbp), %rax
	movl	$34, %edx
	movq	%rax, %rcx
	call	_ZN6Parser6expectE9TokenType
	movq	256(%rbp), %rax
	movq	40(%rax), %rdx
	leaq	-64(%rbp), %rax
	movq	%rax, %rcx
	call	_ZN24IntermediateCodeGnerator7newTempB5cxx11Ev
.LEHE147:
	movq	256(%rbp), %rax
	movq	40(%rax), %rdx
	leaq	-96(%rbp), %rax
	movq	%rax, %rcx
.LEHB148:
	call	_ZN24IntermediateCodeGnerator7newTempB5cxx11Ev
.LEHE148:
	movq	256(%rbp), %rax
	movq	40(%rax), %rbx
	leaq	32(%rbp), %rax
	leaq	-64(%rbp), %rdx
	leaq	.LC39(%rip), %r8
	movq	%rax, %rcx
.LEHB149:
	call	_ZStplIcSt11char_traitsIcESaIcEENSt7__cxx1112basic_stringIT_T0_T1_EERKS8_PKS5_
.LEHE149:
	leaq	32(%rbp), %rax
	movq	%rax, %rdx
	movq	%rbx, %rcx
.LEHB150:
	call	_ZN24IntermediateCodeGnerator14addInstructionERKNSt7__cxx1112basic_stringIcSt11char_traitsIcESaIcEEE
.LEHE150:
	leaq	32(%rbp), %rax
	movq	%rax, %rcx
	call	_ZNSt7__cxx1112basic_stringIcSt11char_traitsIcESaIcEED1Ev
	movq	256(%rbp), %rax
	movq	40(%rax), %rbx
	leaq	128(%rbp), %rax
	movq	%rbp, %rdx
	movq	%rdx, %r8
	leaq	.LC49(%rip), %rdx
	movq	%rax, %rcx
.LEHB151:
	call	_ZStplIcSt11char_traitsIcESaIcEENSt7__cxx1112basic_stringIT_T0_T1_EEPKS5_RKS8_
.LEHE151:
	leaq	96(%rbp), %rax
	leaq	128(%rbp), %rdx
	leaq	.LC50(%rip), %r8
	movq	%rax, %rcx
.LEHB152:
	call	_ZStplIcSt11char_traitsIcESaIcEENSt7__cxx1112basic_stringIT_T0_T1_EEOS8_PKS5_
.LEHE152:
	leaq	64(%rbp), %rax
	leaq	-96(%rbp), %rcx
	leaq	96(%rbp), %rdx
	movq	%rcx, %r8
	movq	%rax, %rcx
.LEHB153:
	call	_ZStplIcSt11char_traitsIcESaIcEENSt7__cxx1112basic_stringIT_T0_T1_EEOS8_RKS8_
.LEHE153:
	leaq	64(%rbp), %rax
	movq	%rax, %rdx
	movq	%rbx, %rcx
.LEHB154:
	call	_ZN24IntermediateCodeGnerator14addInstructionERKNSt7__cxx1112basic_stringIcSt11char_traitsIcESaIcEEE
.LEHE154:
	leaq	64(%rbp), %rax
	movq	%rax, %rcx
	call	_ZNSt7__cxx1112basic_stringIcSt11char_traitsIcESaIcEED1Ev
	leaq	96(%rbp), %rax
	movq	%rax, %rcx
	call	_ZNSt7__cxx1112basic_stringIcSt11char_traitsIcESaIcEED1Ev
	leaq	128(%rbp), %rax
	movq	%rax, %rcx
	call	_ZNSt7__cxx1112basic_stringIcSt11char_traitsIcESaIcEED1Ev
	jmp	.L411
.L412:
	movq	256(%rbp), %rax
	movq	%rax, %rcx
.LEHB155:
	call	_ZN6Parser14parseStatementEv
.L411:
	movq	256(%rbp), %rax
	movq	256(%rbp), %rdx
	movq	24(%rdx), %rdx
	movq	%rax, %rcx
	call	_ZNSt6vectorI5TokenSaIS0_EEixEy
	movl	(%rax), %eax
	cmpl	$35, %eax
	setne	%al
	testb	%al, %al
	jne	.L412
	movq	256(%rbp), %rax
	movq	40(%rax), %rax
	leaq	-32(%rbp), %rdx
	movq	%rax, %rcx
	call	_ZN24IntermediateCodeGnerator14addInstructionERKNSt7__cxx1112basic_stringIcSt11char_traitsIcESaIcEEE
	movq	256(%rbp), %rax
	movq	40(%rax), %rbx
	leaq	160(%rbp), %rax
	leaq	-64(%rbp), %rdx
	movq	%rdx, %r8
	leaq	.LC51(%rip), %rdx
	movq	%rax, %rcx
	call	_ZStplIcSt11char_traitsIcESaIcEENSt7__cxx1112basic_stringIT_T0_T1_EEPKS5_RKS8_
.LEHE155:
	leaq	160(%rbp), %rax
	movq	%rax, %rdx
	movq	%rbx, %rcx
.LEHB156:
	call	_ZN24IntermediateCodeGnerator14addInstructionERKNSt7__cxx1112basic_stringIcSt11char_traitsIcESaIcEEE
.LEHE156:
	leaq	160(%rbp), %rax
	movq	%rax, %rcx
	call	_ZNSt7__cxx1112basic_stringIcSt11char_traitsIcESaIcEED1Ev
	movq	256(%rbp), %rax
	movq	40(%rax), %rbx
	leaq	192(%rbp), %rax
	leaq	-96(%rbp), %rdx
	leaq	.LC39(%rip), %r8
	movq	%rax, %rcx
.LEHB157:
	call	_ZStplIcSt11char_traitsIcESaIcEENSt7__cxx1112basic_stringIT_T0_T1_EERKS8_PKS5_
.LEHE157:
	leaq	192(%rbp), %rax
	movq	%rax, %rdx
	movq	%rbx, %rcx
.LEHB158:
	call	_ZN24IntermediateCodeGnerator14addInstructionERKNSt7__cxx1112basic_stringIcSt11char_traitsIcESaIcEEE
.LEHE158:
	leaq	192(%rbp), %rax
	movq	%rax, %rcx
	call	_ZNSt7__cxx1112basic_stringIcSt11char_traitsIcESaIcEED1Ev
	movq	256(%rbp), %rax
	movl	$35, %edx
	movq	%rax, %rcx
.LEHB159:
	call	_ZN6Parser6expectE9TokenType
.LEHE159:
	leaq	-96(%rbp), %rax
	movq	%rax, %rcx
	call	_ZNSt7__cxx1112basic_stringIcSt11char_traitsIcESaIcEED1Ev
	leaq	-64(%rbp), %rax
	movq	%rax, %rcx
	call	_ZNSt7__cxx1112basic_stringIcSt11char_traitsIcESaIcEED1Ev
	leaq	-32(%rbp), %rax
	movq	%rax, %rcx
	call	_ZNSt7__cxx1112basic_stringIcSt11char_traitsIcESaIcEED1Ev
	movq	%rbp, %rax
	movq	%rax, %rcx
	call	_ZNSt7__cxx1112basic_stringIcSt11char_traitsIcESaIcEED1Ev
	jmp	.L433
.L426:
	movq	%rax, %rbx
	leaq	32(%rbp), %rax
	movq	%rax, %rcx
	call	_ZNSt7__cxx1112basic_stringIcSt11char_traitsIcESaIcEED1Ev
	jmp	.L414
.L430:
	movq	%rax, %rbx
	leaq	64(%rbp), %rax
	movq	%rax, %rcx
	call	_ZNSt7__cxx1112basic_stringIcSt11char_traitsIcESaIcEED1Ev
	jmp	.L416
.L429:
	movq	%rax, %rbx
.L416:
	leaq	96(%rbp), %rax
	movq	%rax, %rcx
	call	_ZNSt7__cxx1112basic_stringIcSt11char_traitsIcESaIcEED1Ev
	jmp	.L417
.L428:
	movq	%rax, %rbx
.L417:
	leaq	128(%rbp), %rax
	movq	%rax, %rcx
	call	_ZNSt7__cxx1112basic_stringIcSt11char_traitsIcESaIcEED1Ev
	jmp	.L414
.L431:
	movq	%rax, %rbx
	leaq	160(%rbp), %rax
	movq	%rax, %rcx
	call	_ZNSt7__cxx1112basic_stringIcSt11char_traitsIcESaIcEED1Ev
	jmp	.L414
.L432:
	movq	%rax, %rbx
	leaq	192(%rbp), %rax
	movq	%rax, %rcx
	call	_ZNSt7__cxx1112basic_stringIcSt11char_traitsIcESaIcEED1Ev
	jmp	.L414
.L427:
	movq	%rax, %rbx
.L414:
	leaq	-96(%rbp), %rax
	movq	%rax, %rcx
	call	_ZNSt7__cxx1112basic_stringIcSt11char_traitsIcESaIcEED1Ev
	jmp	.L420
.L425:
	movq	%rax, %rbx
.L420:
	leaq	-64(%rbp), %rax
	movq	%rax, %rcx
	call	_ZNSt7__cxx1112basic_stringIcSt11char_traitsIcESaIcEED1Ev
	jmp	.L421
.L424:
	movq	%rax, %rbx
.L421:
	leaq	-32(%rbp), %rax
	movq	%rax, %rcx
	call	_ZNSt7__cxx1112basic_stringIcSt11char_traitsIcESaIcEED1Ev
	jmp	.L422
.L423:
	movq	%rax, %rbx
.L422:
	movq	%rbp, %rax
	movq	%rax, %rcx
	call	_ZNSt7__cxx1112basic_stringIcSt11char_traitsIcESaIcEED1Ev
	movq	%rbx, %rax
	movq	%rax, %rcx
.LEHB160:
	call	_Unwind_Resume
	nop
.LEHE160:
.L433:
	addq	$360, %rsp
	popq	%rbx
	popq	%rbp
	ret
	.seh_handler	__gxx_personality_seh0, @unwind, @except
	.seh_handlerdata
.LLSDA3711:
	.byte	0xff
	.byte	0xff
	.byte	0x1
	.uleb128 .LLSDACSE3711-.LLSDACSB3711
.LLSDACSB3711:
	.uleb128 .LEHB145-.LFB3711
	.uleb128 .LEHE145-.LEHB145
	.uleb128 0
	.uleb128 0
	.uleb128 .LEHB146-.LFB3711
	.uleb128 .LEHE146-.LEHB146
	.uleb128 .L423-.LFB3711
	.uleb128 0
	.uleb128 .LEHB147-.LFB3711
	.uleb128 .LEHE147-.LEHB147
	.uleb128 .L424-.LFB3711
	.uleb128 0
	.uleb128 .LEHB148-.LFB3711
	.uleb128 .LEHE148-.LEHB148
	.uleb128 .L425-.LFB3711
	.uleb128 0
	.uleb128 .LEHB149-.LFB3711
	.uleb128 .LEHE149-.LEHB149
	.uleb128 .L427-.LFB3711
	.uleb128 0
	.uleb128 .LEHB150-.LFB3711
	.uleb128 .LEHE150-.LEHB150
	.uleb128 .L426-.LFB3711
	.uleb128 0
	.uleb128 .LEHB151-.LFB3711
	.uleb128 .LEHE151-.LEHB151
	.uleb128 .L427-.LFB3711
	.uleb128 0
	.uleb128 .LEHB152-.LFB3711
	.uleb128 .LEHE152-.LEHB152
	.uleb128 .L428-.LFB3711
	.uleb128 0
	.uleb128 .LEHB153-.LFB3711
	.uleb128 .LEHE153-.LEHB153
	.uleb128 .L429-.LFB3711
	.uleb128 0
	.uleb128 .LEHB154-.LFB3711
	.uleb128 .LEHE154-.LEHB154
	.uleb128 .L430-.LFB3711
	.uleb128 0
	.uleb128 .LEHB155-.LFB3711
	.uleb128 .LEHE155-.LEHB155
	.uleb128 .L427-.LFB3711
	.uleb128 0
	.uleb128 .LEHB156-.LFB3711
	.uleb128 .LEHE156-.LEHB156
	.uleb128 .L431-.LFB3711
	.uleb128 0
	.uleb128 .LEHB157-.LFB3711
	.uleb128 .LEHE157-.LEHB157
	.uleb128 .L427-.LFB3711
	.uleb128 0
	.uleb128 .LEHB158-.LFB3711
	.uleb128 .LEHE158-.LEHB158
	.uleb128 .L432-.LFB3711
	.uleb128 0
	.uleb128 .LEHB159-.LFB3711
	.uleb128 .LEHE159-.LEHB159
	.uleb128 .L427-.LFB3711
	.uleb128 0
	.uleb128 .LEHB160-.LFB3711
	.uleb128 .LEHE160-.LEHB160
	.uleb128 0
	.uleb128 0
.LLSDACSE3711:
	.section	.text$_ZN6Parser17parseForStatementEv,"x"
	.linkonce discard
	.seh_endproc
	.section	.text$_ZN6Parser20parseSwitchStatementEv,"x"
	.linkonce discard
	.align 2
	.globl	_ZN6Parser20parseSwitchStatementEv
	.def	_ZN6Parser20parseSwitchStatementEv;	.scl	2;	.type	32;	.endef
	.seh_proc	_ZN6Parser20parseSwitchStatementEv
_ZN6Parser20parseSwitchStatementEv:
.LFB3712:
	pushq	%rbp
	.seh_pushreg	%rbp
	movq	%rsp, %rbp
	.seh_setframe	%rbp, 0
	subq	$64, %rsp
	.seh_stackalloc	64
	.seh_endprologue
	movq	%rcx, 16(%rbp)
	movq	16(%rbp), %rax
	movl	$15, %edx
	movq	%rax, %rcx
	call	_ZN6Parser6expectE9TokenType
	movq	16(%rbp), %rax
	movl	$32, %edx
	movq	%rax, %rcx
	call	_ZN6Parser6expectE9TokenType
	leaq	-32(%rbp), %rax
	movq	16(%rbp), %rdx
	movq	%rax, %rcx
	call	_ZN6Parser15parseExpressionB5cxx11Ev
	leaq	-32(%rbp), %rax
	movq	%rax, %rcx
	call	_ZNSt7__cxx1112basic_stringIcSt11char_traitsIcESaIcEED1Ev
	movq	16(%rbp), %rax
	movl	$33, %edx
	movq	%rax, %rcx
	call	_ZN6Parser6expectE9TokenType
	movq	16(%rbp), %rax
	movl	$34, %edx
	movq	%rax, %rcx
	call	_ZN6Parser6expectE9TokenType
	jmp	.L435
.L436:
	movq	16(%rbp), %rax
	movq	%rax, %rcx
	call	_ZN6Parser18parseCaseStatementEv
.L435:
	movq	16(%rbp), %rax
	movq	16(%rbp), %rdx
	movq	24(%rdx), %rdx
	movq	%rax, %rcx
	call	_ZNSt6vectorI5TokenSaIS0_EEixEy
	movl	(%rax), %eax
	cmpl	$16, %eax
	sete	%al
	testb	%al, %al
	jne	.L436
	movq	16(%rbp), %rax
	movl	$35, %edx
	movq	%rax, %rcx
	call	_ZN6Parser6expectE9TokenType
	nop
	addq	$64, %rsp
	popq	%rbp
	ret
	.seh_endproc
	.section	.text$_ZN6Parser18parseCaseStatementEv,"x"
	.linkonce discard
	.align 2
	.globl	_ZN6Parser18parseCaseStatementEv
	.def	_ZN6Parser18parseCaseStatementEv;	.scl	2;	.type	32;	.endef
	.seh_proc	_ZN6Parser18parseCaseStatementEv
_ZN6Parser18parseCaseStatementEv:
.LFB3713:
	pushq	%rbp
	.seh_pushreg	%rbp
	movq	%rsp, %rbp
	.seh_setframe	%rbp, 0
	subq	$64, %rsp
	.seh_stackalloc	64
	.seh_endprologue
	movq	%rcx, 16(%rbp)
	movq	16(%rbp), %rax
	movl	$16, %edx
	movq	%rax, %rcx
	call	_ZN6Parser6expectE9TokenType
	leaq	-32(%rbp), %rax
	movq	16(%rbp), %rdx
	movq	%rax, %rcx
	call	_ZN6Parser15parseExpressionB5cxx11Ev
	leaq	-32(%rbp), %rax
	movq	%rax, %rcx
	call	_ZNSt7__cxx1112basic_stringIcSt11char_traitsIcESaIcEED1Ev
	movq	16(%rbp), %rax
	movl	$37, %edx
	movq	%rax, %rcx
	call	_ZN6Parser6expectE9TokenType
	movq	16(%rbp), %rax
	movq	%rax, %rcx
	call	_ZN6Parser14parseStatementEv
	nop
	addq	$64, %rsp
	popq	%rbp
	ret
	.seh_endproc
	.section	.text$_ZN6Parser20parseReturnStatementEv,"x"
	.linkonce discard
	.align 2
	.globl	_ZN6Parser20parseReturnStatementEv
	.def	_ZN6Parser20parseReturnStatementEv;	.scl	2;	.type	32;	.endef
	.seh_proc	_ZN6Parser20parseReturnStatementEv
_ZN6Parser20parseReturnStatementEv:
.LFB3714:
	pushq	%rbp
	.seh_pushreg	%rbp
	movq	%rsp, %rbp
	.seh_setframe	%rbp, 0
	subq	$64, %rsp
	.seh_stackalloc	64
	.seh_endprologue
	movq	%rcx, 16(%rbp)
	movq	16(%rbp), %rax
	movl	$12, %edx
	movq	%rax, %rcx
	call	_ZN6Parser6expectE9TokenType
	movq	16(%rbp), %rax
	movq	16(%rbp), %rdx
	movq	24(%rdx), %rdx
	movq	%rax, %rcx
	call	_ZNSt6vectorI5TokenSaIS0_EEixEy
	movl	(%rax), %eax
	cmpl	$36, %eax
	setne	%al
	testb	%al, %al
	je	.L439
	leaq	-32(%rbp), %rax
	movq	16(%rbp), %rdx
	movq	%rax, %rcx
	call	_ZN6Parser15parseExpressionB5cxx11Ev
	leaq	-32(%rbp), %rax
	movq	%rax, %rcx
	call	_ZNSt7__cxx1112basic_stringIcSt11char_traitsIcESaIcEED1Ev
.L439:
	movq	16(%rbp), %rax
	movl	$36, %edx
	movq	%rax, %rcx
	call	_ZN6Parser6expectE9TokenType
	nop
	addq	$64, %rsp
	popq	%rbp
	ret
	.seh_endproc
	.section	.text$_ZN6Parser16parseIfStatementEv,"x"
	.linkonce discard
	.align 2
	.globl	_ZN6Parser16parseIfStatementEv
	.def	_ZN6Parser16parseIfStatementEv;	.scl	2;	.type	32;	.endef
	.seh_proc	_ZN6Parser16parseIfStatementEv
_ZN6Parser16parseIfStatementEv:
.LFB3715:
	pushq	%rbp
	.seh_pushreg	%rbp
	pushq	%rbx
	.seh_pushreg	%rbx
	subq	$328, %rsp
	.seh_stackalloc	328
	leaq	128(%rsp), %rbp
	.seh_setframe	%rbp, 128
	.seh_endprologue
	movq	%rcx, 224(%rbp)
	movq	224(%rbp), %rax
	movl	$10, %edx
	movq	%rax, %rcx
.LEHB161:
	call	_ZN6Parser6expectE9TokenType
	movq	224(%rbp), %rax
	movl	$32, %edx
	movq	%rax, %rcx
	call	_ZN6Parser6expectE9TokenType
	leaq	-32(%rbp), %rax
	movq	224(%rbp), %rdx
	movq	%rax, %rcx
	call	_ZN6Parser15parseExpressionB5cxx11Ev
.LEHE161:
	movq	224(%rbp), %rax
	movl	$33, %edx
	movq	%rax, %rcx
.LEHB162:
	call	_ZN6Parser6expectE9TokenType
	movq	224(%rbp), %rax
	movl	$34, %edx
	movq	%rax, %rcx
	call	_ZN6Parser6expectE9TokenType
	movq	224(%rbp), %rax
	movq	40(%rax), %rdx
	leaq	-64(%rbp), %rax
	movq	%rax, %rcx
	call	_ZN24IntermediateCodeGnerator7newTempB5cxx11Ev
.LEHE162:
	movq	224(%rbp), %rax
	movq	40(%rax), %rdx
	leaq	-96(%rbp), %rax
	movq	%rax, %rcx
.LEHB163:
	call	_ZN24IntermediateCodeGnerator7newTempB5cxx11Ev
.LEHE163:
	movq	224(%rbp), %rax
	movq	40(%rax), %rbx
	leaq	64(%rbp), %rax
	leaq	-32(%rbp), %rdx
	movq	%rdx, %r8
	leaq	.LC49(%rip), %rdx
	movq	%rax, %rcx
.LEHB164:
	call	_ZStplIcSt11char_traitsIcESaIcEENSt7__cxx1112basic_stringIT_T0_T1_EEPKS5_RKS8_
.LEHE164:
	leaq	32(%rbp), %rax
	leaq	64(%rbp), %rdx
	leaq	.LC50(%rip), %r8
	movq	%rax, %rcx
.LEHB165:
	call	_ZStplIcSt11char_traitsIcESaIcEENSt7__cxx1112basic_stringIT_T0_T1_EEOS8_PKS5_
.LEHE165:
	movq	%rbp, %rax
	leaq	-64(%rbp), %rcx
	leaq	32(%rbp), %rdx
	movq	%rcx, %r8
	movq	%rax, %rcx
.LEHB166:
	call	_ZStplIcSt11char_traitsIcESaIcEENSt7__cxx1112basic_stringIT_T0_T1_EEOS8_RKS8_
.LEHE166:
	movq	%rbp, %rax
	movq	%rax, %rdx
	movq	%rbx, %rcx
.LEHB167:
	call	_ZN24IntermediateCodeGnerator14addInstructionERKNSt7__cxx1112basic_stringIcSt11char_traitsIcESaIcEEE
.LEHE167:
	movq	%rbp, %rax
	movq	%rax, %rcx
	call	_ZNSt7__cxx1112basic_stringIcSt11char_traitsIcESaIcEED1Ev
	leaq	32(%rbp), %rax
	movq	%rax, %rcx
	call	_ZNSt7__cxx1112basic_stringIcSt11char_traitsIcESaIcEED1Ev
	leaq	64(%rbp), %rax
	movq	%rax, %rcx
	call	_ZNSt7__cxx1112basic_stringIcSt11char_traitsIcESaIcEED1Ev
	jmp	.L441
.L442:
	movq	224(%rbp), %rax
	movq	%rax, %rcx
.LEHB168:
	call	_ZN6Parser14parseStatementEv
.L441:
	movq	224(%rbp), %rax
	movq	224(%rbp), %rdx
	movq	24(%rdx), %rdx
	movq	%rax, %rcx
	call	_ZNSt6vectorI5TokenSaIS0_EEixEy
	movl	(%rax), %eax
	cmpl	$35, %eax
	setne	%al
	testb	%al, %al
	jne	.L442
	movq	224(%rbp), %rax
	movq	40(%rax), %rbx
	leaq	96(%rbp), %rax
	leaq	-96(%rbp), %rdx
	movq	%rdx, %r8
	leaq	.LC51(%rip), %rdx
	movq	%rax, %rcx
	call	_ZStplIcSt11char_traitsIcESaIcEENSt7__cxx1112basic_stringIT_T0_T1_EEPKS5_RKS8_
.LEHE168:
	leaq	96(%rbp), %rax
	movq	%rax, %rdx
	movq	%rbx, %rcx
.LEHB169:
	call	_ZN24IntermediateCodeGnerator14addInstructionERKNSt7__cxx1112basic_stringIcSt11char_traitsIcESaIcEEE
.LEHE169:
	leaq	96(%rbp), %rax
	movq	%rax, %rcx
	call	_ZNSt7__cxx1112basic_stringIcSt11char_traitsIcESaIcEED1Ev
	movq	224(%rbp), %rax
	movq	40(%rax), %rbx
	leaq	128(%rbp), %rax
	leaq	-64(%rbp), %rdx
	leaq	.LC39(%rip), %r8
	movq	%rax, %rcx
.LEHB170:
	call	_ZStplIcSt11char_traitsIcESaIcEENSt7__cxx1112basic_stringIT_T0_T1_EERKS8_PKS5_
.LEHE170:
	leaq	128(%rbp), %rax
	movq	%rax, %rdx
	movq	%rbx, %rcx
.LEHB171:
	call	_ZN24IntermediateCodeGnerator14addInstructionERKNSt7__cxx1112basic_stringIcSt11char_traitsIcESaIcEEE
.LEHE171:
	leaq	128(%rbp), %rax
	movq	%rax, %rcx
	call	_ZNSt7__cxx1112basic_stringIcSt11char_traitsIcESaIcEED1Ev
	movq	224(%rbp), %rax
	movl	$35, %edx
	movq	%rax, %rcx
.LEHB172:
	call	_ZN6Parser6expectE9TokenType
	movq	224(%rbp), %rax
	movq	224(%rbp), %rdx
	movq	24(%rdx), %rdx
	movq	%rax, %rcx
	call	_ZNSt6vectorI5TokenSaIS0_EEixEy
	movl	(%rax), %eax
	cmpl	$11, %eax
	sete	%al
	testb	%al, %al
	je	.L443
	movq	224(%rbp), %rax
	movl	$11, %edx
	movq	%rax, %rcx
	call	_ZN6Parser6expectE9TokenType
	movq	224(%rbp), %rax
	movl	$34, %edx
	movq	%rax, %rcx
	call	_ZN6Parser6expectE9TokenType
	jmp	.L444
.L445:
	movq	224(%rbp), %rax
	movq	%rax, %rcx
	call	_ZN6Parser14parseStatementEv
.L444:
	movq	224(%rbp), %rax
	movq	224(%rbp), %rdx
	movq	24(%rdx), %rdx
	movq	%rax, %rcx
	call	_ZNSt6vectorI5TokenSaIS0_EEixEy
	movl	(%rax), %eax
	cmpl	$35, %eax
	setne	%al
	testb	%al, %al
	jne	.L445
	movq	224(%rbp), %rax
	movl	$35, %edx
	movq	%rax, %rcx
	call	_ZN6Parser6expectE9TokenType
.L443:
	movq	224(%rbp), %rax
	movq	40(%rax), %rbx
	leaq	160(%rbp), %rax
	leaq	-96(%rbp), %rdx
	leaq	.LC39(%rip), %r8
	movq	%rax, %rcx
	call	_ZStplIcSt11char_traitsIcESaIcEENSt7__cxx1112basic_stringIT_T0_T1_EERKS8_PKS5_
.LEHE172:
	leaq	160(%rbp), %rax
	movq	%rax, %rdx
	movq	%rbx, %rcx
.LEHB173:
	call	_ZN24IntermediateCodeGnerator14addInstructionERKNSt7__cxx1112basic_stringIcSt11char_traitsIcESaIcEEE
.LEHE173:
	leaq	160(%rbp), %rax
	movq	%rax, %rcx
	call	_ZNSt7__cxx1112basic_stringIcSt11char_traitsIcESaIcEED1Ev
	leaq	-96(%rbp), %rax
	movq	%rax, %rcx
	call	_ZNSt7__cxx1112basic_stringIcSt11char_traitsIcESaIcEED1Ev
	leaq	-64(%rbp), %rax
	movq	%rax, %rcx
	call	_ZNSt7__cxx1112basic_stringIcSt11char_traitsIcESaIcEED1Ev
	leaq	-32(%rbp), %rax
	movq	%rax, %rcx
	call	_ZNSt7__cxx1112basic_stringIcSt11char_traitsIcESaIcEED1Ev
	jmp	.L464
.L459:
	movq	%rax, %rbx
	movq	%rbp, %rax
	movq	%rax, %rcx
	call	_ZNSt7__cxx1112basic_stringIcSt11char_traitsIcESaIcEED1Ev
	jmp	.L447
.L458:
	movq	%rax, %rbx
.L447:
	leaq	32(%rbp), %rax
	movq	%rax, %rcx
	call	_ZNSt7__cxx1112basic_stringIcSt11char_traitsIcESaIcEED1Ev
	jmp	.L448
.L457:
	movq	%rax, %rbx
.L448:
	leaq	64(%rbp), %rax
	movq	%rax, %rcx
	call	_ZNSt7__cxx1112basic_stringIcSt11char_traitsIcESaIcEED1Ev
	jmp	.L449
.L461:
	movq	%rax, %rbx
	leaq	96(%rbp), %rax
	movq	%rax, %rcx
	call	_ZNSt7__cxx1112basic_stringIcSt11char_traitsIcESaIcEED1Ev
	jmp	.L449
.L462:
	movq	%rax, %rbx
	leaq	128(%rbp), %rax
	movq	%rax, %rcx
	call	_ZNSt7__cxx1112basic_stringIcSt11char_traitsIcESaIcEED1Ev
	jmp	.L449
.L463:
	movq	%rax, %rbx
	leaq	160(%rbp), %rax
	movq	%rax, %rcx
	call	_ZNSt7__cxx1112basic_stringIcSt11char_traitsIcESaIcEED1Ev
	jmp	.L449
.L460:
	movq	%rax, %rbx
.L449:
	leaq	-96(%rbp), %rax
	movq	%rax, %rcx
	call	_ZNSt7__cxx1112basic_stringIcSt11char_traitsIcESaIcEED1Ev
	jmp	.L453
.L456:
	movq	%rax, %rbx
.L453:
	leaq	-64(%rbp), %rax
	movq	%rax, %rcx
	call	_ZNSt7__cxx1112basic_stringIcSt11char_traitsIcESaIcEED1Ev
	jmp	.L454
.L455:
	movq	%rax, %rbx
.L454:
	leaq	-32(%rbp), %rax
	movq	%rax, %rcx
	call	_ZNSt7__cxx1112basic_stringIcSt11char_traitsIcESaIcEED1Ev
	movq	%rbx, %rax
	movq	%rax, %rcx
.LEHB174:
	call	_Unwind_Resume
	nop
.LEHE174:
.L464:
	addq	$328, %rsp
	popq	%rbx
	popq	%rbp
	ret
	.seh_handler	__gxx_personality_seh0, @unwind, @except
	.seh_handlerdata
.LLSDA3715:
	.byte	0xff
	.byte	0xff
	.byte	0x1
	.uleb128 .LLSDACSE3715-.LLSDACSB3715
.LLSDACSB3715:
	.uleb128 .LEHB161-.LFB3715
	.uleb128 .LEHE161-.LEHB161
	.uleb128 0
	.uleb128 0
	.uleb128 .LEHB162-.LFB3715
	.uleb128 .LEHE162-.LEHB162
	.uleb128 .L455-.LFB3715
	.uleb128 0
	.uleb128 .LEHB163-.LFB3715
	.uleb128 .LEHE163-.LEHB163
	.uleb128 .L456-.LFB3715
	.uleb128 0
	.uleb128 .LEHB164-.LFB3715
	.uleb128 .LEHE164-.LEHB164
	.uleb128 .L460-.LFB3715
	.uleb128 0
	.uleb128 .LEHB165-.LFB3715
	.uleb128 .LEHE165-.LEHB165
	.uleb128 .L457-.LFB3715
	.uleb128 0
	.uleb128 .LEHB166-.LFB3715
	.uleb128 .LEHE166-.LEHB166
	.uleb128 .L458-.LFB3715
	.uleb128 0
	.uleb128 .LEHB167-.LFB3715
	.uleb128 .LEHE167-.LEHB167
	.uleb128 .L459-.LFB3715
	.uleb128 0
	.uleb128 .LEHB168-.LFB3715
	.uleb128 .LEHE168-.LEHB168
	.uleb128 .L460-.LFB3715
	.uleb128 0
	.uleb128 .LEHB169-.LFB3715
	.uleb128 .LEHE169-.LEHB169
	.uleb128 .L461-.LFB3715
	.uleb128 0
	.uleb128 .LEHB170-.LFB3715
	.uleb128 .LEHE170-.LEHB170
	.uleb128 .L460-.LFB3715
	.uleb128 0
	.uleb128 .LEHB171-.LFB3715
	.uleb128 .LEHE171-.LEHB171
	.uleb128 .L462-.LFB3715
	.uleb128 0
	.uleb128 .LEHB172-.LFB3715
	.uleb128 .LEHE172-.LEHB172
	.uleb128 .L460-.LFB3715
	.uleb128 0
	.uleb128 .LEHB173-.LFB3715
	.uleb128 .LEHE173-.LEHB173
	.uleb128 .L463-.LFB3715
	.uleb128 0
	.uleb128 .LEHB174-.LFB3715
	.uleb128 .LEHE174-.LEHB174
	.uleb128 0
	.uleb128 0
.LLSDACSE3715:
	.section	.text$_ZN6Parser16parseIfStatementEv,"x"
	.linkonce discard
	.seh_endproc
	.section .rdata,"dr"
.LC52:
	.ascii "print \0"
	.section	.text$_ZN6Parser19parsePrintStatementEv,"x"
	.linkonce discard
	.align 2
	.globl	_ZN6Parser19parsePrintStatementEv
	.def	_ZN6Parser19parsePrintStatementEv;	.scl	2;	.type	32;	.endef
	.seh_proc	_ZN6Parser19parsePrintStatementEv
_ZN6Parser19parsePrintStatementEv:
.LFB3716:
	pushq	%rbp
	.seh_pushreg	%rbp
	pushq	%rbx
	.seh_pushreg	%rbx
	subq	$104, %rsp
	.seh_stackalloc	104
	leaq	96(%rsp), %rbp
	.seh_setframe	%rbp, 96
	.seh_endprologue
	movq	%rcx, 32(%rbp)
	movq	32(%rbp), %rax
	movl	$40, %edx
	movq	%rax, %rcx
.LEHB175:
	call	_ZN6Parser6expectE9TokenType
	movq	32(%rbp), %rax
	movl	$32, %edx
	movq	%rax, %rcx
	call	_ZN6Parser6expectE9TokenType
	leaq	-64(%rbp), %rax
	movq	32(%rbp), %rdx
	movq	%rax, %rcx
	call	_ZN6Parser15parseExpressionB5cxx11Ev
.LEHE175:
	movq	32(%rbp), %rax
	movl	$33, %edx
	movq	%rax, %rcx
.LEHB176:
	call	_ZN6Parser6expectE9TokenType
	movq	32(%rbp), %rax
	movl	$36, %edx
	movq	%rax, %rcx
	call	_ZN6Parser6expectE9TokenType
	movq	32(%rbp), %rax
	movq	40(%rax), %rbx
	leaq	-32(%rbp), %rax
	leaq	-64(%rbp), %rdx
	movq	%rdx, %r8
	leaq	.LC52(%rip), %rdx
	movq	%rax, %rcx
	call	_ZStplIcSt11char_traitsIcESaIcEENSt7__cxx1112basic_stringIT_T0_T1_EEPKS5_RKS8_
.LEHE176:
	leaq	-32(%rbp), %rax
	movq	%rax, %rdx
	movq	%rbx, %rcx
.LEHB177:
	call	_ZN24IntermediateCodeGnerator14addInstructionERKNSt7__cxx1112basic_stringIcSt11char_traitsIcESaIcEEE
.LEHE177:
	leaq	-32(%rbp), %rax
	movq	%rax, %rcx
	call	_ZNSt7__cxx1112basic_stringIcSt11char_traitsIcESaIcEED1Ev
	leaq	-64(%rbp), %rax
	movq	%rax, %rcx
	call	_ZNSt7__cxx1112basic_stringIcSt11char_traitsIcESaIcEED1Ev
	jmp	.L470
.L469:
	movq	%rax, %rbx
	leaq	-32(%rbp), %rax
	movq	%rax, %rcx
	call	_ZNSt7__cxx1112basic_stringIcSt11char_traitsIcESaIcEED1Ev
	jmp	.L467
.L468:
	movq	%rax, %rbx
.L467:
	leaq	-64(%rbp), %rax
	movq	%rax, %rcx
	call	_ZNSt7__cxx1112basic_stringIcSt11char_traitsIcESaIcEED1Ev
	movq	%rbx, %rax
	movq	%rax, %rcx
.LEHB178:
	call	_Unwind_Resume
	nop
.LEHE178:
.L470:
	addq	$104, %rsp
	popq	%rbx
	popq	%rbp
	ret
	.seh_handler	__gxx_personality_seh0, @unwind, @except
	.seh_handlerdata
.LLSDA3716:
	.byte	0xff
	.byte	0xff
	.byte	0x1
	.uleb128 .LLSDACSE3716-.LLSDACSB3716
.LLSDACSB3716:
	.uleb128 .LEHB175-.LFB3716
	.uleb128 .LEHE175-.LEHB175
	.uleb128 0
	.uleb128 0
	.uleb128 .LEHB176-.LFB3716
	.uleb128 .LEHE176-.LEHB176
	.uleb128 .L468-.LFB3716
	.uleb128 0
	.uleb128 .LEHB177-.LFB3716
	.uleb128 .LEHE177-.LEHB177
	.uleb128 .L469-.LFB3716
	.uleb128 0
	.uleb128 .LEHB178-.LFB3716
	.uleb128 .LEHE178-.LEHB178
	.uleb128 0
	.uleb128 0
.LLSDACSE3716:
	.section	.text$_ZN6Parser19parsePrintStatementEv,"x"
	.linkonce discard
	.seh_endproc
	.section	.text$_ZN6Parser10parseBlockEv,"x"
	.linkonce discard
	.align 2
	.globl	_ZN6Parser10parseBlockEv
	.def	_ZN6Parser10parseBlockEv;	.scl	2;	.type	32;	.endef
	.seh_proc	_ZN6Parser10parseBlockEv
_ZN6Parser10parseBlockEv:
.LFB3717:
	pushq	%rbp
	.seh_pushreg	%rbp
	movq	%rsp, %rbp
	.seh_setframe	%rbp, 0
	subq	$32, %rsp
	.seh_stackalloc	32
	.seh_endprologue
	movq	%rcx, 16(%rbp)
	movq	16(%rbp), %rax
	movl	$34, %edx
	movq	%rax, %rcx
	call	_ZN6Parser6expectE9TokenType
	jmp	.L472
.L473:
	movq	16(%rbp), %rax
	movq	%rax, %rcx
	call	_ZN6Parser14parseStatementEv
.L472:
	movq	16(%rbp), %rax
	movq	16(%rbp), %rdx
	movq	24(%rdx), %rdx
	movq	%rax, %rcx
	call	_ZNSt6vectorI5TokenSaIS0_EEixEy
	movl	(%rax), %eax
	cmpl	$35, %eax
	setne	%al
	testb	%al, %al
	jne	.L473
	movq	16(%rbp), %rax
	movl	$35, %edx
	movq	%rax, %rcx
	call	_ZN6Parser6expectE9TokenType
	nop
	addq	$32, %rsp
	popq	%rbp
	ret
	.seh_endproc
	.section	.text$_ZN5TokenC1ERKS_,"x"
	.linkonce discard
	.align 2
	.globl	_ZN5TokenC1ERKS_
	.def	_ZN5TokenC1ERKS_;	.scl	2;	.type	32;	.endef
	.seh_proc	_ZN5TokenC1ERKS_
_ZN5TokenC1ERKS_:
.LFB3721:
	pushq	%rbp
	.seh_pushreg	%rbp
	movq	%rsp, %rbp
	.seh_setframe	%rbp, 0
	subq	$32, %rsp
	.seh_stackalloc	32
	.seh_endprologue
	movq	%rcx, 16(%rbp)
	movq	%rdx, 24(%rbp)
	movq	24(%rbp), %rax
	movl	(%rax), %edx
	movq	16(%rbp), %rax
	movl	%edx, (%rax)
	movq	16(%rbp), %rax
	addq	$8, %rax
	movq	24(%rbp), %rdx
	addq	$8, %rdx
	movq	%rax, %rcx
	call	_ZNSt7__cxx1112basic_stringIcSt11char_traitsIcESaIcEEC1ERKS4_
	movq	24(%rbp), %rax
	movl	40(%rax), %edx
	movq	16(%rbp), %rax
	movl	%edx, 40(%rax)
	nop
	addq	$32, %rsp
	popq	%rbp
	ret
	.seh_endproc
	.section .rdata,"dr"
.LC53:
	.ascii " = \0"
	.section	.text$_ZN6Parser16parseDeclarationEv,"x"
	.linkonce discard
	.align 2
	.globl	_ZN6Parser16parseDeclarationEv
	.def	_ZN6Parser16parseDeclarationEv;	.scl	2;	.type	32;	.endef
	.seh_proc	_ZN6Parser16parseDeclarationEv
_ZN6Parser16parseDeclarationEv:
.LFB3718:
	pushq	%rbp
	.seh_pushreg	%rbp
	pushq	%rbx
	.seh_pushreg	%rbx
	subq	$200, %rsp
	.seh_stackalloc	200
	leaq	192(%rsp), %rbp
	.seh_setframe	%rbp, 192
	.seh_endprologue
	movq	%rcx, 32(%rbp)
	movq	32(%rbp), %rax
	movq	32(%rbp), %rdx
	movq	24(%rdx), %rdx
	movq	%rax, %rcx
	call	_ZNSt6vectorI5TokenSaIS0_EEixEy
	movl	(%rax), %eax
	movl	%eax, -4(%rbp)
	movl	-4(%rbp), %edx
	movq	32(%rbp), %rax
	movq	%rax, %rcx
.LEHB179:
	call	_ZN6Parser6expectE9TokenType
	movq	32(%rbp), %rax
	movq	32(%rbp), %rdx
	movq	24(%rdx), %rdx
	movq	%rax, %rcx
	call	_ZNSt6vectorI5TokenSaIS0_EEixEy
	movq	%rax, %rdx
	leaq	-128(%rbp), %rax
	movq	%rax, %rcx
	call	_ZN5TokenC1ERKS_
.LEHE179:
	movq	32(%rbp), %rax
	movl	$8, %edx
	movq	%rax, %rcx
.LEHB180:
	call	_ZN6Parser6expectE9TokenType
	movq	32(%rbp), %rax
	movl	$19, %edx
	movq	%rax, %rcx
	call	_ZN6Parser6expectE9TokenType
	leaq	-160(%rbp), %rax
	movq	32(%rbp), %rdx
	movq	%rax, %rcx
	call	_ZN6Parser15parseExpressionB5cxx11Ev
.LEHE180:
	movq	32(%rbp), %rax
	movq	32(%rax), %rax
	leaq	-160(%rbp), %rcx
	leaq	-128(%rbp), %rdx
	addq	$8, %rdx
	movq	%rcx, %r8
	movq	%rax, %rcx
.LEHB181:
	call	_ZN11SymbolTable15declareVariableERKNSt7__cxx1112basic_stringIcSt11char_traitsIcESaIcEEES7_
	movq	32(%rbp), %rax
	movq	40(%rax), %rbx
	leaq	-48(%rbp), %rax
	leaq	-128(%rbp), %rdx
	addq	$8, %rdx
	leaq	.LC53(%rip), %r8
	movq	%rax, %rcx
	call	_ZStplIcSt11char_traitsIcESaIcEENSt7__cxx1112basic_stringIT_T0_T1_EERKS8_PKS5_
.LEHE181:
	leaq	-80(%rbp), %rax
	leaq	-160(%rbp), %rcx
	leaq	-48(%rbp), %rdx
	movq	%rcx, %r8
	movq	%rax, %rcx
.LEHB182:
	call	_ZStplIcSt11char_traitsIcESaIcEENSt7__cxx1112basic_stringIT_T0_T1_EEOS8_RKS8_
.LEHE182:
	leaq	-80(%rbp), %rax
	movq	%rax, %rdx
	movq	%rbx, %rcx
.LEHB183:
	call	_ZN24IntermediateCodeGnerator14addInstructionERKNSt7__cxx1112basic_stringIcSt11char_traitsIcESaIcEEE
.LEHE183:
	leaq	-80(%rbp), %rax
	movq	%rax, %rcx
	call	_ZNSt7__cxx1112basic_stringIcSt11char_traitsIcESaIcEED1Ev
	leaq	-48(%rbp), %rax
	movq	%rax, %rcx
	call	_ZNSt7__cxx1112basic_stringIcSt11char_traitsIcESaIcEED1Ev
	movq	32(%rbp), %rax
	movl	$36, %edx
	movq	%rax, %rcx
.LEHB184:
	call	_ZN6Parser6expectE9TokenType
.LEHE184:
	leaq	-160(%rbp), %rax
	movq	%rax, %rcx
	call	_ZNSt7__cxx1112basic_stringIcSt11char_traitsIcESaIcEED1Ev
	leaq	-128(%rbp), %rax
	movq	%rax, %rcx
	call	_ZN5TokenD1Ev
	jmp	.L484
.L483:
	movq	%rax, %rbx
	leaq	-80(%rbp), %rax
	movq	%rax, %rcx
	call	_ZNSt7__cxx1112basic_stringIcSt11char_traitsIcESaIcEED1Ev
	jmp	.L477
.L482:
	movq	%rax, %rbx
.L477:
	leaq	-48(%rbp), %rax
	movq	%rax, %rcx
	call	_ZNSt7__cxx1112basic_stringIcSt11char_traitsIcESaIcEED1Ev
	jmp	.L478
.L481:
	movq	%rax, %rbx
.L478:
	leaq	-160(%rbp), %rax
	movq	%rax, %rcx
	call	_ZNSt7__cxx1112basic_stringIcSt11char_traitsIcESaIcEED1Ev
	jmp	.L479
.L480:
	movq	%rax, %rbx
.L479:
	leaq	-128(%rbp), %rax
	movq	%rax, %rcx
	call	_ZN5TokenD1Ev
	movq	%rbx, %rax
	movq	%rax, %rcx
.LEHB185:
	call	_Unwind_Resume
	nop
.LEHE185:
.L484:
	addq	$200, %rsp
	popq	%rbx
	popq	%rbp
	ret
	.seh_handler	__gxx_personality_seh0, @unwind, @except
	.seh_handlerdata
.LLSDA3718:
	.byte	0xff
	.byte	0xff
	.byte	0x1
	.uleb128 .LLSDACSE3718-.LLSDACSB3718
.LLSDACSB3718:
	.uleb128 .LEHB179-.LFB3718
	.uleb128 .LEHE179-.LEHB179
	.uleb128 0
	.uleb128 0
	.uleb128 .LEHB180-.LFB3718
	.uleb128 .LEHE180-.LEHB180
	.uleb128 .L480-.LFB3718
	.uleb128 0
	.uleb128 .LEHB181-.LFB3718
	.uleb128 .LEHE181-.LEHB181
	.uleb128 .L481-.LFB3718
	.uleb128 0
	.uleb128 .LEHB182-.LFB3718
	.uleb128 .LEHE182-.LEHB182
	.uleb128 .L482-.LFB3718
	.uleb128 0
	.uleb128 .LEHB183-.LFB3718
	.uleb128 .LEHE183-.LEHB183
	.uleb128 .L483-.LFB3718
	.uleb128 0
	.uleb128 .LEHB184-.LFB3718
	.uleb128 .LEHE184-.LEHB184
	.uleb128 .L481-.LFB3718
	.uleb128 0
	.uleb128 .LEHB185-.LFB3718
	.uleb128 .LEHE185-.LEHB185
	.uleb128 0
	.uleb128 0
.LLSDACSE3718:
	.section	.text$_ZN6Parser16parseDeclarationEv,"x"
	.linkonce discard
	.seh_endproc
	.section .rdata,"dr"
.LC54:
	.ascii "Error: Variable '\0"
.LC55:
	.ascii "' not declared at line \0"
	.section	.text$_ZN6Parser15parseAssignmentB5cxx11Ev,"x"
	.linkonce discard
	.align 2
	.globl	_ZN6Parser15parseAssignmentB5cxx11Ev
	.def	_ZN6Parser15parseAssignmentB5cxx11Ev;	.scl	2;	.type	32;	.endef
	.seh_proc	_ZN6Parser15parseAssignmentB5cxx11Ev
_ZN6Parser15parseAssignmentB5cxx11Ev:
.LFB3722:
	pushq	%rbp
	.seh_pushreg	%rbp
	pushq	%rbx
	.seh_pushreg	%rbx
	subq	$152, %rsp
	.seh_stackalloc	152
	leaq	144(%rsp), %rbp
	.seh_setframe	%rbp, 144
	.seh_endprologue
	movq	%rcx, 32(%rbp)
	movq	%rdx, 40(%rbp)
	movq	40(%rbp), %rax
	movq	40(%rbp), %rdx
	movq	24(%rdx), %rdx
	movq	%rax, %rcx
	call	_ZNSt6vectorI5TokenSaIS0_EEixEy
	movq	%rax, %rdx
	leaq	-80(%rbp), %rax
	movq	%rax, %rcx
.LEHB186:
	call	_ZN5TokenC1ERKS_
.LEHE186:
	movq	40(%rbp), %rax
	movl	$8, %edx
	movq	%rax, %rcx
.LEHB187:
	call	_ZN6Parser6expectE9TokenType
	movq	40(%rbp), %rax
	movq	32(%rax), %rax
	leaq	-80(%rbp), %rdx
	addq	$8, %rdx
	movq	%rax, %rcx
	call	_ZNK11SymbolTable10isDeclaredERKNSt7__cxx1112basic_stringIcSt11char_traitsIcESaIcEEE
	xorl	$1, %eax
	testb	%al, %al
	je	.L486
	leaq	.LC54(%rip), %rax
	movq	%rax, %rdx
	movq	.refptr._ZSt4cout(%rip), %rax
	movq	%rax, %rcx
	call	_ZStlsISt11char_traitsIcEERSt13basic_ostreamIcT_ES5_PKc
	movq	%rax, %rcx
	leaq	-80(%rbp), %rax
	addq	$8, %rax
	movq	%rax, %rdx
	call	_ZStlsIcSt11char_traitsIcESaIcEERSt13basic_ostreamIT_T0_ES7_RKNSt7__cxx1112basic_stringIS4_S5_T1_EE
	movq	%rax, %rcx
	leaq	.LC55(%rip), %rax
	movq	%rax, %rdx
	call	_ZStlsISt11char_traitsIcEERSt13basic_ostreamIcT_ES5_PKc
	movq	%rax, %rcx
	movl	-40(%rbp), %eax
	movl	%eax, %edx
	call	_ZNSolsEi
	movq	%rax, %rcx
	movq	.refptr._ZSt4endlIcSt11char_traitsIcEERSt13basic_ostreamIT_T0_ES6_(%rip), %rax
	movq	%rax, %rdx
	call	_ZNSolsEPFRSoS_E
	movl	$1, %ecx
	call	exit
.L486:
	movq	40(%rbp), %rax
	movl	$19, %edx
	movq	%rax, %rcx
	call	_ZN6Parser6expectE9TokenType
	leaq	-112(%rbp), %rax
	movq	40(%rbp), %rdx
	movq	%rax, %rcx
	call	_ZN6Parser15parseExpressionB5cxx11Ev
.LEHE187:
	movq	40(%rbp), %rax
	movq	32(%rax), %rax
	leaq	-112(%rbp), %rcx
	leaq	-80(%rbp), %rdx
	addq	$8, %rdx
	movq	%rcx, %r8
	movq	%rax, %rcx
.LEHB188:
	call	_ZN11SymbolTable15declareVariableERKNSt7__cxx1112basic_stringIcSt11char_traitsIcESaIcEEES7_
	movq	40(%rbp), %rax
	movl	$36, %edx
	movq	%rax, %rcx
	call	_ZN6Parser6expectE9TokenType
	leaq	-32(%rbp), %rax
	leaq	-80(%rbp), %rdx
	addq	$8, %rdx
	leaq	.LC53(%rip), %r8
	movq	%rax, %rcx
	call	_ZStplIcSt11char_traitsIcESaIcEENSt7__cxx1112basic_stringIT_T0_T1_EERKS8_PKS5_
.LEHE188:
	movq	32(%rbp), %rax
	leaq	-112(%rbp), %rcx
	leaq	-32(%rbp), %rdx
	movq	%rcx, %r8
	movq	%rax, %rcx
.LEHB189:
	call	_ZStplIcSt11char_traitsIcESaIcEENSt7__cxx1112basic_stringIT_T0_T1_EEOS8_RKS8_
.LEHE189:
	leaq	-32(%rbp), %rax
	movq	%rax, %rcx
	call	_ZNSt7__cxx1112basic_stringIcSt11char_traitsIcESaIcEED1Ev
	movq	40(%rbp), %rax
	movq	40(%rax), %rax
	movq	32(%rbp), %rdx
	movq	%rax, %rcx
.LEHB190:
	call	_ZN24IntermediateCodeGnerator14addInstructionERKNSt7__cxx1112basic_stringIcSt11char_traitsIcESaIcEEE
.LEHE190:
	leaq	-112(%rbp), %rax
	movq	%rax, %rcx
	call	_ZNSt7__cxx1112basic_stringIcSt11char_traitsIcESaIcEED1Ev
	leaq	-80(%rbp), %rax
	movq	%rax, %rcx
	call	_ZN5TokenD1Ev
	jmp	.L496
.L494:
	movq	%rax, %rbx
	leaq	-32(%rbp), %rax
	movq	%rax, %rcx
	call	_ZNSt7__cxx1112basic_stringIcSt11char_traitsIcESaIcEED1Ev
	jmp	.L489
.L495:
	movq	%rax, %rbx
	movq	32(%rbp), %rax
	movq	%rax, %rcx
	call	_ZNSt7__cxx1112basic_stringIcSt11char_traitsIcESaIcEED1Ev
	jmp	.L489
.L493:
	movq	%rax, %rbx
.L489:
	leaq	-112(%rbp), %rax
	movq	%rax, %rcx
	call	_ZNSt7__cxx1112basic_stringIcSt11char_traitsIcESaIcEED1Ev
	jmp	.L491
.L492:
	movq	%rax, %rbx
.L491:
	leaq	-80(%rbp), %rax
	movq	%rax, %rcx
	call	_ZN5TokenD1Ev
	movq	%rbx, %rax
	movq	%rax, %rcx
.LEHB191:
	call	_Unwind_Resume
.LEHE191:
.L496:
	movq	32(%rbp), %rax
	addq	$152, %rsp
	popq	%rbx
	popq	%rbp
	ret
	.seh_handler	__gxx_personality_seh0, @unwind, @except
	.seh_handlerdata
.LLSDA3722:
	.byte	0xff
	.byte	0xff
	.byte	0x1
	.uleb128 .LLSDACSE3722-.LLSDACSB3722
.LLSDACSB3722:
	.uleb128 .LEHB186-.LFB3722
	.uleb128 .LEHE186-.LEHB186
	.uleb128 0
	.uleb128 0
	.uleb128 .LEHB187-.LFB3722
	.uleb128 .LEHE187-.LEHB187
	.uleb128 .L492-.LFB3722
	.uleb128 0
	.uleb128 .LEHB188-.LFB3722
	.uleb128 .LEHE188-.LEHB188
	.uleb128 .L493-.LFB3722
	.uleb128 0
	.uleb128 .LEHB189-.LFB3722
	.uleb128 .LEHE189-.LEHB189
	.uleb128 .L494-.LFB3722
	.uleb128 0
	.uleb128 .LEHB190-.LFB3722
	.uleb128 .LEHE190-.LEHB190
	.uleb128 .L495-.LFB3722
	.uleb128 0
	.uleb128 .LEHB191-.LFB3722
	.uleb128 .LEHE191-.LEHB191
	.uleb128 0
	.uleb128 0
.LLSDACSE3722:
	.section	.text$_ZN6Parser15parseAssignmentB5cxx11Ev,"x"
	.linkonce discard
	.seh_endproc
	.section .rdata,"dr"
.LC56:
	.ascii " \0"
	.section	.text$_ZN6Parser15parseExpressionB5cxx11Ev,"x"
	.linkonce discard
	.align 2
	.globl	_ZN6Parser15parseExpressionB5cxx11Ev
	.def	_ZN6Parser15parseExpressionB5cxx11Ev;	.scl	2;	.type	32;	.endef
	.seh_proc	_ZN6Parser15parseExpressionB5cxx11Ev
_ZN6Parser15parseExpressionB5cxx11Ev:
.LFB3723:
	pushq	%rbp
	.seh_pushreg	%rbp
	pushq	%rbx
	.seh_pushreg	%rbx
	subq	$344, %rsp
	.seh_stackalloc	344
	leaq	128(%rsp), %rbp
	.seh_setframe	%rbp, 128
	.seh_endprologue
	movq	%rcx, 240(%rbp)
	movq	%rdx, 248(%rbp)
	movq	240(%rbp), %rax
	movq	248(%rbp), %rdx
	movq	%rax, %rcx
.LEHB192:
	call	_ZN6Parser12parsePrimaryB5cxx11Ev
.LEHE192:
	jmp	.L498
.L502:
	movq	248(%rbp), %rax
	movq	248(%rbp), %rdx
	movq	24(%rdx), %rdx
	movq	%rax, %rcx
	call	_ZNSt6vectorI5TokenSaIS0_EEixEy
	movl	(%rax), %eax
	movl	%eax, 204(%rbp)
	movl	204(%rbp), %edx
	movq	248(%rbp), %rax
	movq	%rax, %rcx
.LEHB193:
	call	_ZN6Parser6expectE9TokenType
	leaq	-96(%rbp), %rax
	movq	248(%rbp), %rdx
	movq	%rax, %rcx
	call	_ZN6Parser12parsePrimaryB5cxx11Ev
.LEHE193:
	movq	248(%rbp), %rax
	movq	40(%rax), %rdx
	leaq	-64(%rbp), %rax
	movq	%rax, %rcx
.LEHB194:
	call	_ZN24IntermediateCodeGnerator7newTempB5cxx11Ev
.LEHE194:
	movq	248(%rbp), %rax
	movq	40(%rax), %rbx
	leaq	64(%rbp), %rax
	movl	204(%rbp), %ecx
	movq	248(%rbp), %rdx
	movl	%ecx, %r8d
	movq	%rax, %rcx
.LEHB195:
	call	_ZN6Parser17tokenTypeToStringB5cxx11E9TokenType
.LEHE195:
	leaq	160(%rbp), %rax
	leaq	-64(%rbp), %rdx
	leaq	.LC53(%rip), %r8
	movq	%rax, %rcx
.LEHB196:
	call	_ZStplIcSt11char_traitsIcESaIcEENSt7__cxx1112basic_stringIT_T0_T1_EERKS8_PKS5_
.LEHE196:
	leaq	128(%rbp), %rax
	movq	240(%rbp), %rcx
	leaq	160(%rbp), %rdx
	movq	%rcx, %r8
	movq	%rax, %rcx
.LEHB197:
	call	_ZStplIcSt11char_traitsIcESaIcEENSt7__cxx1112basic_stringIT_T0_T1_EEOS8_RKS8_
.LEHE197:
	leaq	96(%rbp), %rax
	leaq	128(%rbp), %rdx
	leaq	.LC56(%rip), %r8
	movq	%rax, %rcx
.LEHB198:
	call	_ZStplIcSt11char_traitsIcESaIcEENSt7__cxx1112basic_stringIT_T0_T1_EEOS8_PKS5_
.LEHE198:
	leaq	32(%rbp), %rax
	leaq	64(%rbp), %rcx
	leaq	96(%rbp), %rdx
	movq	%rcx, %r8
	movq	%rax, %rcx
.LEHB199:
	call	_ZStplIcSt11char_traitsIcESaIcEENSt7__cxx1112basic_stringIT_T0_T1_EEOS8_S9_
.LEHE199:
	movq	%rbp, %rax
	leaq	32(%rbp), %rdx
	leaq	.LC56(%rip), %r8
	movq	%rax, %rcx
.LEHB200:
	call	_ZStplIcSt11char_traitsIcESaIcEENSt7__cxx1112basic_stringIT_T0_T1_EEOS8_PKS5_
.LEHE200:
	leaq	-32(%rbp), %rax
	leaq	-96(%rbp), %rcx
	movq	%rbp, %rdx
	movq	%rcx, %r8
	movq	%rax, %rcx
.LEHB201:
	call	_ZStplIcSt11char_traitsIcESaIcEENSt7__cxx1112basic_stringIT_T0_T1_EEOS8_RKS8_
.LEHE201:
	leaq	-32(%rbp), %rax
	movq	%rax, %rdx
	movq	%rbx, %rcx
.LEHB202:
	call	_ZN24IntermediateCodeGnerator14addInstructionERKNSt7__cxx1112basic_stringIcSt11char_traitsIcESaIcEEE
.LEHE202:
	leaq	-32(%rbp), %rax
	movq	%rax, %rcx
	call	_ZNSt7__cxx1112basic_stringIcSt11char_traitsIcESaIcEED1Ev
	movq	%rbp, %rax
	movq	%rax, %rcx
	call	_ZNSt7__cxx1112basic_stringIcSt11char_traitsIcESaIcEED1Ev
	leaq	32(%rbp), %rax
	movq	%rax, %rcx
	call	_ZNSt7__cxx1112basic_stringIcSt11char_traitsIcESaIcEED1Ev
	leaq	96(%rbp), %rax
	movq	%rax, %rcx
	call	_ZNSt7__cxx1112basic_stringIcSt11char_traitsIcESaIcEED1Ev
	leaq	128(%rbp), %rax
	movq	%rax, %rcx
	call	_ZNSt7__cxx1112basic_stringIcSt11char_traitsIcESaIcEED1Ev
	leaq	160(%rbp), %rax
	movq	%rax, %rcx
	call	_ZNSt7__cxx1112basic_stringIcSt11char_traitsIcESaIcEED1Ev
	leaq	64(%rbp), %rax
	movq	%rax, %rcx
	call	_ZNSt7__cxx1112basic_stringIcSt11char_traitsIcESaIcEED1Ev
	leaq	-64(%rbp), %rdx
	movq	240(%rbp), %rax
	movq	%rax, %rcx
.LEHB203:
	call	_ZNSt7__cxx1112basic_stringIcSt11char_traitsIcESaIcEEaSERKS4_
.LEHE203:
	leaq	-64(%rbp), %rax
	movq	%rax, %rcx
	call	_ZNSt7__cxx1112basic_stringIcSt11char_traitsIcESaIcEED1Ev
	leaq	-96(%rbp), %rax
	movq	%rax, %rcx
	call	_ZNSt7__cxx1112basic_stringIcSt11char_traitsIcESaIcEED1Ev
.L498:
	movq	248(%rbp), %rax
	movq	24(%rax), %rbx
	movq	248(%rbp), %rax
	movq	%rax, %rcx
	call	_ZNKSt6vectorI5TokenSaIS0_EE4sizeEv
	cmpq	%rax, %rbx
	jnb	.L499
	movq	248(%rbp), %rax
	movq	248(%rbp), %rdx
	movq	24(%rdx), %rdx
	movq	%rax, %rcx
	call	_ZNSt6vectorI5TokenSaIS0_EEixEy
	movl	(%rax), %eax
	cmpl	$20, %eax
	je	.L500
	movq	248(%rbp), %rax
	movq	248(%rbp), %rdx
	movq	24(%rdx), %rdx
	movq	%rax, %rcx
	call	_ZNSt6vectorI5TokenSaIS0_EEixEy
	movl	(%rax), %eax
	cmpl	$21, %eax
	je	.L500
	movq	248(%rbp), %rax
	movq	248(%rbp), %rdx
	movq	24(%rdx), %rdx
	movq	%rax, %rcx
	call	_ZNSt6vectorI5TokenSaIS0_EEixEy
	movl	(%rax), %eax
	cmpl	$22, %eax
	je	.L500
	movq	248(%rbp), %rax
	movq	248(%rbp), %rdx
	movq	24(%rdx), %rdx
	movq	%rax, %rcx
	call	_ZNSt6vectorI5TokenSaIS0_EEixEy
	movl	(%rax), %eax
	cmpl	$23, %eax
	je	.L500
	movq	248(%rbp), %rax
	movq	248(%rbp), %rdx
	movq	24(%rdx), %rdx
	movq	%rax, %rcx
	call	_ZNSt6vectorI5TokenSaIS0_EEixEy
	movl	(%rax), %eax
	cmpl	$24, %eax
	je	.L500
	movq	248(%rbp), %rax
	movq	248(%rbp), %rdx
	movq	24(%rdx), %rdx
	movq	%rax, %rcx
	call	_ZNSt6vectorI5TokenSaIS0_EEixEy
	movl	(%rax), %eax
	cmpl	$25, %eax
	je	.L500
	movq	248(%rbp), %rax
	movq	248(%rbp), %rdx
	movq	24(%rdx), %rdx
	movq	%rax, %rcx
	call	_ZNSt6vectorI5TokenSaIS0_EEixEy
	movl	(%rax), %eax
	cmpl	$27, %eax
	je	.L500
	movq	248(%rbp), %rax
	movq	248(%rbp), %rdx
	movq	24(%rdx), %rdx
	movq	%rax, %rcx
	call	_ZNSt6vectorI5TokenSaIS0_EEixEy
	movl	(%rax), %eax
	cmpl	$26, %eax
	je	.L500
	movq	248(%rbp), %rax
	movq	248(%rbp), %rdx
	movq	24(%rdx), %rdx
	movq	%rax, %rcx
	call	_ZNSt6vectorI5TokenSaIS0_EEixEy
	movl	(%rax), %eax
	cmpl	$29, %eax
	je	.L500
	movq	248(%rbp), %rax
	movq	248(%rbp), %rdx
	movq	24(%rdx), %rdx
	movq	%rax, %rcx
	call	_ZNSt6vectorI5TokenSaIS0_EEixEy
	movl	(%rax), %eax
	cmpl	$28, %eax
	jne	.L499
.L500:
	movl	$1, %eax
	jmp	.L501
.L499:
	movl	$0, %eax
.L501:
	testb	%al, %al
	jne	.L502
	jmp	.L524
.L522:
	movq	%rax, %rbx
	leaq	-32(%rbp), %rax
	movq	%rax, %rcx
	call	_ZNSt7__cxx1112basic_stringIcSt11char_traitsIcESaIcEED1Ev
	jmp	.L505
.L521:
	movq	%rax, %rbx
.L505:
	movq	%rbp, %rax
	movq	%rax, %rcx
	call	_ZNSt7__cxx1112basic_stringIcSt11char_traitsIcESaIcEED1Ev
	jmp	.L506
.L520:
	movq	%rax, %rbx
.L506:
	leaq	32(%rbp), %rax
	movq	%rax, %rcx
	call	_ZNSt7__cxx1112basic_stringIcSt11char_traitsIcESaIcEED1Ev
	jmp	.L507
.L519:
	movq	%rax, %rbx
.L507:
	leaq	96(%rbp), %rax
	movq	%rax, %rcx
	call	_ZNSt7__cxx1112basic_stringIcSt11char_traitsIcESaIcEED1Ev
	jmp	.L508
.L518:
	movq	%rax, %rbx
.L508:
	leaq	128(%rbp), %rax
	movq	%rax, %rcx
	call	_ZNSt7__cxx1112basic_stringIcSt11char_traitsIcESaIcEED1Ev
	jmp	.L509
.L517:
	movq	%rax, %rbx
.L509:
	leaq	160(%rbp), %rax
	movq	%rax, %rcx
	call	_ZNSt7__cxx1112basic_stringIcSt11char_traitsIcESaIcEED1Ev
	jmp	.L510
.L516:
	movq	%rax, %rbx
.L510:
	leaq	64(%rbp), %rax
	movq	%rax, %rcx
	call	_ZNSt7__cxx1112basic_stringIcSt11char_traitsIcESaIcEED1Ev
	jmp	.L511
.L523:
	movq	%rax, %rbx
.L511:
	leaq	-64(%rbp), %rax
	movq	%rax, %rcx
	call	_ZNSt7__cxx1112basic_stringIcSt11char_traitsIcESaIcEED1Ev
	jmp	.L512
.L515:
	movq	%rax, %rbx
.L512:
	leaq	-96(%rbp), %rax
	movq	%rax, %rcx
	call	_ZNSt7__cxx1112basic_stringIcSt11char_traitsIcESaIcEED1Ev
	jmp	.L513
.L514:
	movq	%rax, %rbx
.L513:
	movq	240(%rbp), %rax
	movq	%rax, %rcx
	call	_ZNSt7__cxx1112basic_stringIcSt11char_traitsIcESaIcEED1Ev
	movq	%rbx, %rax
	movq	%rax, %rcx
.LEHB204:
	call	_Unwind_Resume
.LEHE204:
.L524:
	movq	240(%rbp), %rax
	addq	$344, %rsp
	popq	%rbx
	popq	%rbp
	ret
	.seh_handler	__gxx_personality_seh0, @unwind, @except
	.seh_handlerdata
.LLSDA3723:
	.byte	0xff
	.byte	0xff
	.byte	0x1
	.uleb128 .LLSDACSE3723-.LLSDACSB3723
.LLSDACSB3723:
	.uleb128 .LEHB192-.LFB3723
	.uleb128 .LEHE192-.LEHB192
	.uleb128 0
	.uleb128 0
	.uleb128 .LEHB193-.LFB3723
	.uleb128 .LEHE193-.LEHB193
	.uleb128 .L514-.LFB3723
	.uleb128 0
	.uleb128 .LEHB194-.LFB3723
	.uleb128 .LEHE194-.LEHB194
	.uleb128 .L515-.LFB3723
	.uleb128 0
	.uleb128 .LEHB195-.LFB3723
	.uleb128 .LEHE195-.LEHB195
	.uleb128 .L523-.LFB3723
	.uleb128 0
	.uleb128 .LEHB196-.LFB3723
	.uleb128 .LEHE196-.LEHB196
	.uleb128 .L516-.LFB3723
	.uleb128 0
	.uleb128 .LEHB197-.LFB3723
	.uleb128 .LEHE197-.LEHB197
	.uleb128 .L517-.LFB3723
	.uleb128 0
	.uleb128 .LEHB198-.LFB3723
	.uleb128 .LEHE198-.LEHB198
	.uleb128 .L518-.LFB3723
	.uleb128 0
	.uleb128 .LEHB199-.LFB3723
	.uleb128 .LEHE199-.LEHB199
	.uleb128 .L519-.LFB3723
	.uleb128 0
	.uleb128 .LEHB200-.LFB3723
	.uleb128 .LEHE200-.LEHB200
	.uleb128 .L520-.LFB3723
	.uleb128 0
	.uleb128 .LEHB201-.LFB3723
	.uleb128 .LEHE201-.LEHB201
	.uleb128 .L521-.LFB3723
	.uleb128 0
	.uleb128 .LEHB202-.LFB3723
	.uleb128 .LEHE202-.LEHB202
	.uleb128 .L522-.LFB3723
	.uleb128 0
	.uleb128 .LEHB203-.LFB3723
	.uleb128 .LEHE203-.LEHB203
	.uleb128 .L523-.LFB3723
	.uleb128 0
	.uleb128 .LEHB204-.LFB3723
	.uleb128 .LEHE204-.LEHB204
	.uleb128 0
	.uleb128 0
.LLSDACSE3723:
	.section	.text$_ZN6Parser15parseExpressionB5cxx11Ev,"x"
	.linkonce discard
	.seh_endproc
	.section .rdata,"dr"
	.align 8
.LC57:
	.ascii "Syntax error in expression on line \0"
	.section	.text$_ZN6Parser12parsePrimaryB5cxx11Ev,"x"
	.linkonce discard
	.align 2
	.globl	_ZN6Parser12parsePrimaryB5cxx11Ev
	.def	_ZN6Parser12parsePrimaryB5cxx11Ev;	.scl	2;	.type	32;	.endef
	.seh_proc	_ZN6Parser12parsePrimaryB5cxx11Ev
_ZN6Parser12parsePrimaryB5cxx11Ev:
.LFB3724:
	pushq	%rbp
	.seh_pushreg	%rbp
	pushq	%rsi
	.seh_pushreg	%rsi
	pushq	%rbx
	.seh_pushreg	%rbx
	subq	$32, %rsp
	.seh_stackalloc	32
	leaq	32(%rsp), %rbp
	.seh_setframe	%rbp, 32
	.seh_endprologue
	movq	%rcx, 32(%rbp)
	movq	%rdx, 40(%rbp)
	movl	$0, %esi
	movq	40(%rbp), %rax
	movq	40(%rbp), %rdx
	movq	24(%rdx), %rdx
	movq	%rax, %rcx
	call	_ZNSt6vectorI5TokenSaIS0_EEixEy
	movl	(%rax), %eax
	cmpl	$9, %eax
	je	.L526
	movq	40(%rbp), %rax
	movq	40(%rbp), %rdx
	movq	24(%rdx), %rdx
	movq	%rax, %rcx
	call	_ZNSt6vectorI5TokenSaIS0_EEixEy
	movl	(%rax), %eax
	cmpl	$8, %eax
	je	.L526
	movq	40(%rbp), %rax
	movq	40(%rbp), %rdx
	movq	24(%rdx), %rdx
	movq	%rax, %rcx
	call	_ZNSt6vectorI5TokenSaIS0_EEixEy
	movl	(%rax), %eax
	cmpl	$6, %eax
	je	.L526
	movq	40(%rbp), %rax
	movq	40(%rbp), %rdx
	movq	24(%rdx), %rdx
	movq	%rax, %rcx
	call	_ZNSt6vectorI5TokenSaIS0_EEixEy
	movl	(%rax), %eax
	cmpl	$7, %eax
	je	.L526
	movq	40(%rbp), %rax
	movq	40(%rbp), %rdx
	movq	24(%rdx), %rdx
	movq	%rax, %rcx
	call	_ZNSt6vectorI5TokenSaIS0_EEixEy
	movl	(%rax), %eax
	cmpl	$3, %eax
	jne	.L527
.L526:
	movl	$1, %eax
	jmp	.L528
.L527:
	movl	$0, %eax
.L528:
	testb	%al, %al
	je	.L529
	movq	40(%rbp), %rax
	movq	40(%rbp), %rdx
	movq	24(%rdx), %rdx
	movq	%rax, %rcx
	call	_ZNSt6vectorI5TokenSaIS0_EEixEy
	leaq	8(%rax), %rdx
	movq	32(%rbp), %rax
	movq	%rax, %rcx
.LEHB205:
	call	_ZNSt7__cxx1112basic_stringIcSt11char_traitsIcESaIcEEC1ERKS4_
.LEHE205:
	movq	40(%rbp), %rax
	movq	40(%rbp), %rdx
	movq	24(%rdx), %rdx
	movq	%rax, %rcx
	call	_ZNSt6vectorI5TokenSaIS0_EEixEy
	movl	(%rax), %edx
	movq	40(%rbp), %rax
	movq	%rax, %rcx
.LEHB206:
	call	_ZN6Parser6expectE9TokenType
.LEHE206:
	movl	$1, %eax
	testb	%al, %al
	jne	.L531
	movq	32(%rbp), %rax
	movq	%rax, %rcx
	call	_ZNSt7__cxx1112basic_stringIcSt11char_traitsIcESaIcEED1Ev
	jmp	.L525
.L529:
	leaq	.LC57(%rip), %rax
	movq	%rax, %rdx
	movq	.refptr._ZSt4cout(%rip), %rax
	movq	%rax, %rcx
.LEHB207:
	call	_ZStlsISt11char_traitsIcEERSt13basic_ostreamIcT_ES5_PKc
	movq	%rax, %rbx
	movq	40(%rbp), %rax
	movq	40(%rbp), %rdx
	movq	24(%rdx), %rdx
	movq	%rax, %rcx
	call	_ZNSt6vectorI5TokenSaIS0_EEixEy
	movl	40(%rax), %eax
	movl	%eax, %edx
	movq	%rbx, %rcx
	call	_ZNSolsEi
	movq	%rax, %rcx
	movq	.refptr._ZSt4endlIcSt11char_traitsIcEERSt13basic_ostreamIT_T0_ES6_(%rip), %rax
	movq	%rax, %rdx
	call	_ZNSolsEPFRSoS_E
	movl	$1, %ecx
	call	exit
.L531:
	jmp	.L525
.L534:
	movq	%rax, %rbx
	testb	%sil, %sil
	jne	.L533
	movq	32(%rbp), %rax
	movq	%rax, %rcx
	call	_ZNSt7__cxx1112basic_stringIcSt11char_traitsIcESaIcEED1Ev
.L533:
	movq	%rbx, %rax
	movq	%rax, %rcx
	call	_Unwind_Resume
.LEHE207:
.L525:
	movq	32(%rbp), %rax
	addq	$32, %rsp
	popq	%rbx
	popq	%rsi
	popq	%rbp
	ret
	.seh_handler	__gxx_personality_seh0, @unwind, @except
	.seh_handlerdata
.LLSDA3724:
	.byte	0xff
	.byte	0xff
	.byte	0x1
	.uleb128 .LLSDACSE3724-.LLSDACSB3724
.LLSDACSB3724:
	.uleb128 .LEHB205-.LFB3724
	.uleb128 .LEHE205-.LEHB205
	.uleb128 0
	.uleb128 0
	.uleb128 .LEHB206-.LFB3724
	.uleb128 .LEHE206-.LEHB206
	.uleb128 .L534-.LFB3724
	.uleb128 0
	.uleb128 .LEHB207-.LFB3724
	.uleb128 .LEHE207-.LEHB207
	.uleb128 0
	.uleb128 0
.LLSDACSE3724:
	.section	.text$_ZN6Parser12parsePrimaryB5cxx11Ev,"x"
	.linkonce discard
	.seh_endproc
	.section .rdata,"dr"
	.align 8
.LC58:
	.ascii "Syntax error: expected token of type \0"
.LC59:
	.ascii ", but got \0"
.LC60:
	.ascii " on line: \0"
	.section	.text$_ZN6Parser6expectE9TokenType,"x"
	.linkonce discard
	.align 2
	.globl	_ZN6Parser6expectE9TokenType
	.def	_ZN6Parser6expectE9TokenType;	.scl	2;	.type	32;	.endef
	.seh_proc	_ZN6Parser6expectE9TokenType
_ZN6Parser6expectE9TokenType:
.LFB3725:
	pushq	%rbp
	.seh_pushreg	%rbp
	pushq	%rbx
	.seh_pushreg	%rbx
	subq	$40, %rsp
	.seh_stackalloc	40
	leaq	32(%rsp), %rbp
	.seh_setframe	%rbp, 32
	.seh_endprologue
	movq	%rcx, 32(%rbp)
	movl	%edx, 40(%rbp)
	movq	32(%rbp), %rax
	movq	32(%rbp), %rdx
	movq	24(%rdx), %rdx
	movq	%rax, %rcx
	call	_ZNSt6vectorI5TokenSaIS0_EEixEy
	movl	(%rax), %eax
	cmpl	%eax, 40(%rbp)
	setne	%al
	testb	%al, %al
	je	.L536
	leaq	.LC58(%rip), %rax
	movq	%rax, %rdx
	movq	.refptr._ZSt4cout(%rip), %rax
	movq	%rax, %rcx
	call	_ZStlsISt11char_traitsIcEERSt13basic_ostreamIcT_ES5_PKc
	movq	%rax, %rcx
	movl	40(%rbp), %eax
	movl	%eax, %edx
	call	_ZNSolsEi
	movq	%rax, %rcx
	leaq	.LC59(%rip), %rax
	movq	%rax, %rdx
	call	_ZStlsISt11char_traitsIcEERSt13basic_ostreamIcT_ES5_PKc
	movq	%rax, %rbx
	movq	32(%rbp), %rax
	movq	32(%rbp), %rdx
	movq	24(%rdx), %rdx
	movq	%rax, %rcx
	call	_ZNSt6vectorI5TokenSaIS0_EEixEy
	addq	$8, %rax
	movq	%rax, %rdx
	movq	%rbx, %rcx
	call	_ZStlsIcSt11char_traitsIcESaIcEERSt13basic_ostreamIT_T0_ES7_RKNSt7__cxx1112basic_stringIS4_S5_T1_EE
	movq	%rax, %rcx
	leaq	.LC60(%rip), %rax
	movq	%rax, %rdx
	call	_ZStlsISt11char_traitsIcEERSt13basic_ostreamIcT_ES5_PKc
	movq	%rax, %rbx
	movq	32(%rbp), %rax
	movq	32(%rbp), %rdx
	movq	24(%rdx), %rdx
	movq	%rax, %rcx
	call	_ZNSt6vectorI5TokenSaIS0_EEixEy
	movl	40(%rax), %eax
	movl	%eax, %edx
	movq	%rbx, %rcx
	call	_ZNSolsEi
	movq	%rax, %rcx
	movq	.refptr._ZSt4endlIcSt11char_traitsIcEERSt13basic_ostreamIT_T0_ES6_(%rip), %rax
	movq	%rax, %rdx
	call	_ZNSolsEPFRSoS_E
	movl	$1, %ecx
	call	exit
.L536:
	movq	32(%rbp), %rax
	movq	24(%rax), %rax
	leaq	1(%rax), %rdx
	movq	32(%rbp), %rax
	movq	%rdx, 24(%rax)
	nop
	addq	$40, %rsp
	popq	%rbx
	popq	%rbp
	ret
	.seh_endproc
	.section	.text$_ZN6Parser17tokenTypeToStringB5cxx11E9TokenType,"x"
	.linkonce discard
	.align 2
	.globl	_ZN6Parser17tokenTypeToStringB5cxx11E9TokenType
	.def	_ZN6Parser17tokenTypeToStringB5cxx11E9TokenType;	.scl	2;	.type	32;	.endef
	.seh_proc	_ZN6Parser17tokenTypeToStringB5cxx11E9TokenType
_ZN6Parser17tokenTypeToStringB5cxx11E9TokenType:
.LFB3726:
	pushq	%rbp
	.seh_pushreg	%rbp
	pushq	%rbx
	.seh_pushreg	%rbx
	subq	$152, %rsp
	.seh_stackalloc	152
	leaq	144(%rsp), %rbp
	.seh_setframe	%rbp, 144
	.seh_endprologue
	movq	%rcx, 32(%rbp)
	movq	%rdx, 40(%rbp)
	movl	%r8d, 48(%rbp)
	movl	48(%rbp), %eax
	subl	$20, %eax
	cmpl	$9, %eax
	ja	.L538
	movl	%eax, %eax
	leaq	0(,%rax,4), %rdx
	leaq	.L540(%rip), %rax
	movl	(%rdx,%rax), %eax
	cltq
	leaq	.L540(%rip), %rdx
	addq	%rdx, %rax
	jmp	*%rax
	.section .rdata,"dr"
	.align 4
.L540:
	.long	.L549-.L540
	.long	.L548-.L540
	.long	.L547-.L540
	.long	.L546-.L540
	.long	.L545-.L540
	.long	.L544-.L540
	.long	.L543-.L540
	.long	.L542-.L540
	.long	.L541-.L540
	.long	.L539-.L540
	.section	.text$_ZN6Parser17tokenTypeToStringB5cxx11E9TokenType,"x"
	.linkonce discard
.L549:
	leaq	-99(%rbp), %rax
	movq	%rax, -8(%rbp)
	nop
	nop
	leaq	-99(%rbp), %rdx
	movq	32(%rbp), %rax
	movq	%rdx, %r8
	leaq	.LC30(%rip), %rdx
	movq	%rax, %rcx
.LEHB208:
	call	_ZNSt7__cxx1112basic_stringIcSt11char_traitsIcESaIcEEC1IS3_EEPKcRKS3_
.LEHE208:
	leaq	-99(%rbp), %rax
	movq	%rax, %rcx
	call	_ZNSt15__new_allocatorIcED2Ev
	jmp	.L573
.L548:
	leaq	-98(%rbp), %rax
	movq	%rax, -16(%rbp)
	nop
	nop
	leaq	-98(%rbp), %rdx
	movq	32(%rbp), %rax
	movq	%rdx, %r8
	leaq	.LC31(%rip), %rdx
	movq	%rax, %rcx
.LEHB209:
	call	_ZNSt7__cxx1112basic_stringIcSt11char_traitsIcESaIcEEC1IS3_EEPKcRKS3_
.LEHE209:
	leaq	-98(%rbp), %rax
	movq	%rax, %rcx
	call	_ZNSt15__new_allocatorIcED2Ev
	jmp	.L573
.L547:
	leaq	-97(%rbp), %rax
	movq	%rax, -24(%rbp)
	nop
	nop
	leaq	-97(%rbp), %rdx
	movq	32(%rbp), %rax
	movq	%rdx, %r8
	leaq	.LC32(%rip), %rdx
	movq	%rax, %rcx
.LEHB210:
	call	_ZNSt7__cxx1112basic_stringIcSt11char_traitsIcESaIcEEC1IS3_EEPKcRKS3_
.LEHE210:
	leaq	-97(%rbp), %rax
	movq	%rax, %rcx
	call	_ZNSt15__new_allocatorIcED2Ev
	jmp	.L573
.L546:
	leaq	-96(%rbp), %rax
	movq	%rax, -32(%rbp)
	nop
	nop
	leaq	-96(%rbp), %rdx
	movq	32(%rbp), %rax
	movq	%rdx, %r8
	leaq	.LC33(%rip), %rdx
	movq	%rax, %rcx
.LEHB211:
	call	_ZNSt7__cxx1112basic_stringIcSt11char_traitsIcESaIcEEC1IS3_EEPKcRKS3_
.LEHE211:
	leaq	-96(%rbp), %rax
	movq	%rax, %rcx
	call	_ZNSt15__new_allocatorIcED2Ev
	jmp	.L573
.L545:
	leaq	-95(%rbp), %rax
	movq	%rax, -40(%rbp)
	nop
	nop
	leaq	-95(%rbp), %rdx
	movq	32(%rbp), %rax
	movq	%rdx, %r8
	leaq	.LC19(%rip), %rdx
	movq	%rax, %rcx
.LEHB212:
	call	_ZNSt7__cxx1112basic_stringIcSt11char_traitsIcESaIcEEC1IS3_EEPKcRKS3_
.LEHE212:
	leaq	-95(%rbp), %rax
	movq	%rax, %rcx
	call	_ZNSt15__new_allocatorIcED2Ev
	jmp	.L573
.L544:
	leaq	-94(%rbp), %rax
	movq	%rax, -48(%rbp)
	nop
	nop
	leaq	-94(%rbp), %rdx
	movq	32(%rbp), %rax
	movq	%rdx, %r8
	leaq	.LC21(%rip), %rdx
	movq	%rax, %rcx
.LEHB213:
	call	_ZNSt7__cxx1112basic_stringIcSt11char_traitsIcESaIcEEC1IS3_EEPKcRKS3_
.LEHE213:
	leaq	-94(%rbp), %rax
	movq	%rax, %rcx
	call	_ZNSt15__new_allocatorIcED2Ev
	jmp	.L573
.L542:
	leaq	-93(%rbp), %rax
	movq	%rax, -56(%rbp)
	nop
	nop
	leaq	-93(%rbp), %rdx
	movq	32(%rbp), %rax
	movq	%rdx, %r8
	leaq	.LC29(%rip), %rdx
	movq	%rax, %rcx
.LEHB214:
	call	_ZNSt7__cxx1112basic_stringIcSt11char_traitsIcESaIcEEC1IS3_EEPKcRKS3_
.LEHE214:
	leaq	-93(%rbp), %rax
	movq	%rax, %rcx
	call	_ZNSt15__new_allocatorIcED2Ev
	jmp	.L573
.L543:
	leaq	-92(%rbp), %rax
	movq	%rax, -64(%rbp)
	nop
	nop
	leaq	-92(%rbp), %rdx
	movq	32(%rbp), %rax
	movq	%rdx, %r8
	leaq	.LC27(%rip), %rdx
	movq	%rax, %rcx
.LEHB215:
	call	_ZNSt7__cxx1112basic_stringIcSt11char_traitsIcESaIcEEC1IS3_EEPKcRKS3_
.LEHE215:
	leaq	-92(%rbp), %rax
	movq	%rax, %rcx
	call	_ZNSt15__new_allocatorIcED2Ev
	jmp	.L573
.L539:
	leaq	-91(%rbp), %rax
	movq	%rax, -72(%rbp)
	nop
	nop
	leaq	-91(%rbp), %rdx
	movq	32(%rbp), %rax
	movq	%rdx, %r8
	leaq	.LC28(%rip), %rdx
	movq	%rax, %rcx
.LEHB216:
	call	_ZNSt7__cxx1112basic_stringIcSt11char_traitsIcESaIcEEC1IS3_EEPKcRKS3_
.LEHE216:
	leaq	-91(%rbp), %rax
	movq	%rax, %rcx
	call	_ZNSt15__new_allocatorIcED2Ev
	jmp	.L573
.L541:
	leaq	-90(%rbp), %rax
	movq	%rax, -80(%rbp)
	nop
	nop
	leaq	-90(%rbp), %rdx
	movq	32(%rbp), %rax
	movq	%rdx, %r8
	leaq	.LC26(%rip), %rdx
	movq	%rax, %rcx
.LEHB217:
	call	_ZNSt7__cxx1112basic_stringIcSt11char_traitsIcESaIcEEC1IS3_EEPKcRKS3_
.LEHE217:
	leaq	-90(%rbp), %rax
	movq	%rax, %rcx
	call	_ZNSt15__new_allocatorIcED2Ev
	jmp	.L573
.L538:
	leaq	-89(%rbp), %rax
	movq	%rax, -88(%rbp)
	nop
	nop
	leaq	-89(%rbp), %rdx
	movq	32(%rbp), %rax
	movq	%rdx, %r8
	leaq	.LC40(%rip), %rdx
	movq	%rax, %rcx
.LEHB218:
	call	_ZNSt7__cxx1112basic_stringIcSt11char_traitsIcESaIcEEC1IS3_EEPKcRKS3_
.LEHE218:
	leaq	-89(%rbp), %rax
	movq	%rax, %rcx
	call	_ZNSt15__new_allocatorIcED2Ev
	jmp	.L573
.L562:
	movq	%rax, %rbx
	leaq	-99(%rbp), %rax
	movq	%rax, %rcx
	call	_ZNSt15__new_allocatorIcED2Ev
	nop
	movq	%rbx, %rax
	movq	%rax, %rcx
.LEHB219:
	call	_Unwind_Resume
.L563:
	movq	%rax, %rbx
	leaq	-98(%rbp), %rax
	movq	%rax, %rcx
	call	_ZNSt15__new_allocatorIcED2Ev
	nop
	movq	%rbx, %rax
	movq	%rax, %rcx
	call	_Unwind_Resume
.L564:
	movq	%rax, %rbx
	leaq	-97(%rbp), %rax
	movq	%rax, %rcx
	call	_ZNSt15__new_allocatorIcED2Ev
	nop
	movq	%rbx, %rax
	movq	%rax, %rcx
	call	_Unwind_Resume
.L565:
	movq	%rax, %rbx
	leaq	-96(%rbp), %rax
	movq	%rax, %rcx
	call	_ZNSt15__new_allocatorIcED2Ev
	nop
	movq	%rbx, %rax
	movq	%rax, %rcx
	call	_Unwind_Resume
.L566:
	movq	%rax, %rbx
	leaq	-95(%rbp), %rax
	movq	%rax, %rcx
	call	_ZNSt15__new_allocatorIcED2Ev
	nop
	movq	%rbx, %rax
	movq	%rax, %rcx
	call	_Unwind_Resume
.L567:
	movq	%rax, %rbx
	leaq	-94(%rbp), %rax
	movq	%rax, %rcx
	call	_ZNSt15__new_allocatorIcED2Ev
	nop
	movq	%rbx, %rax
	movq	%rax, %rcx
	call	_Unwind_Resume
.L568:
	movq	%rax, %rbx
	leaq	-93(%rbp), %rax
	movq	%rax, %rcx
	call	_ZNSt15__new_allocatorIcED2Ev
	nop
	movq	%rbx, %rax
	movq	%rax, %rcx
	call	_Unwind_Resume
.L569:
	movq	%rax, %rbx
	leaq	-92(%rbp), %rax
	movq	%rax, %rcx
	call	_ZNSt15__new_allocatorIcED2Ev
	nop
	movq	%rbx, %rax
	movq	%rax, %rcx
	call	_Unwind_Resume
.L570:
	movq	%rax, %rbx
	leaq	-91(%rbp), %rax
	movq	%rax, %rcx
	call	_ZNSt15__new_allocatorIcED2Ev
	nop
	movq	%rbx, %rax
	movq	%rax, %rcx
	call	_Unwind_Resume
.L571:
	movq	%rax, %rbx
	leaq	-90(%rbp), %rax
	movq	%rax, %rcx
	call	_ZNSt15__new_allocatorIcED2Ev
	nop
	movq	%rbx, %rax
	movq	%rax, %rcx
	call	_Unwind_Resume
.L572:
	movq	%rax, %rbx
	leaq	-89(%rbp), %rax
	movq	%rax, %rcx
	call	_ZNSt15__new_allocatorIcED2Ev
	nop
	movq	%rbx, %rax
	movq	%rax, %rcx
	call	_Unwind_Resume
.LEHE219:
.L573:
	movq	32(%rbp), %rax
	addq	$152, %rsp
	popq	%rbx
	popq	%rbp
	ret
	.seh_handler	__gxx_personality_seh0, @unwind, @except
	.seh_handlerdata
.LLSDA3726:
	.byte	0xff
	.byte	0xff
	.byte	0x1
	.uleb128 .LLSDACSE3726-.LLSDACSB3726
.LLSDACSB3726:
	.uleb128 .LEHB208-.LFB3726
	.uleb128 .LEHE208-.LEHB208
	.uleb128 .L562-.LFB3726
	.uleb128 0
	.uleb128 .LEHB209-.LFB3726
	.uleb128 .LEHE209-.LEHB209
	.uleb128 .L563-.LFB3726
	.uleb128 0
	.uleb128 .LEHB210-.LFB3726
	.uleb128 .LEHE210-.LEHB210
	.uleb128 .L564-.LFB3726
	.uleb128 0
	.uleb128 .LEHB211-.LFB3726
	.uleb128 .LEHE211-.LEHB211
	.uleb128 .L565-.LFB3726
	.uleb128 0
	.uleb128 .LEHB212-.LFB3726
	.uleb128 .LEHE212-.LEHB212
	.uleb128 .L566-.LFB3726
	.uleb128 0
	.uleb128 .LEHB213-.LFB3726
	.uleb128 .LEHE213-.LEHB213
	.uleb128 .L567-.LFB3726
	.uleb128 0
	.uleb128 .LEHB214-.LFB3726
	.uleb128 .LEHE214-.LEHB214
	.uleb128 .L568-.LFB3726
	.uleb128 0
	.uleb128 .LEHB215-.LFB3726
	.uleb128 .LEHE215-.LEHB215
	.uleb128 .L569-.LFB3726
	.uleb128 0
	.uleb128 .LEHB216-.LFB3726
	.uleb128 .LEHE216-.LEHB216
	.uleb128 .L570-.LFB3726
	.uleb128 0
	.uleb128 .LEHB217-.LFB3726
	.uleb128 .LEHE217-.LEHB217
	.uleb128 .L571-.LFB3726
	.uleb128 0
	.uleb128 .LEHB218-.LFB3726
	.uleb128 .LEHE218-.LEHB218
	.uleb128 .L572-.LFB3726
	.uleb128 0
	.uleb128 .LEHB219-.LFB3726
	.uleb128 .LEHE219-.LEHB219
	.uleb128 0
	.uleb128 0
.LLSDACSE3726:
	.section	.text$_ZN6Parser17tokenTypeToStringB5cxx11E9TokenType,"x"
	.linkonce discard
	.seh_endproc
	.section	.text$_ZNSt8__detail15_Hash_code_baseINSt7__cxx1112basic_stringIcSt11char_traitsIcESaIcEEESt4pairIKS6_S6_ENS_10_Select1stESt4hashIS6_ENS_18_Mod_range_hashingENS_20_Default_ranged_hashELb1EEC2Ev,"x"
	.linkonce discard
	.align 2
	.globl	_ZNSt8__detail15_Hash_code_baseINSt7__cxx1112basic_stringIcSt11char_traitsIcESaIcEEESt4pairIKS6_S6_ENS_10_Select1stESt4hashIS6_ENS_18_Mod_range_hashingENS_20_Default_ranged_hashELb1EEC2Ev
	.def	_ZNSt8__detail15_Hash_code_baseINSt7__cxx1112basic_stringIcSt11char_traitsIcESaIcEEESt4pairIKS6_S6_ENS_10_Select1stESt4hashIS6_ENS_18_Mod_range_hashingENS_20_Default_ranged_hashELb1EEC2Ev;	.scl	2;	.type	32;	.endef
	.seh_proc	_ZNSt8__detail15_Hash_code_baseINSt7__cxx1112basic_stringIcSt11char_traitsIcESaIcEEESt4pairIKS6_S6_ENS_10_Select1stESt4hashIS6_ENS_18_Mod_range_hashingENS_20_Default_ranged_hashELb1EEC2Ev
_ZNSt8__detail15_Hash_code_baseINSt7__cxx1112basic_stringIcSt11char_traitsIcESaIcEEESt4pairIKS6_S6_ENS_10_Select1stESt4hashIS6_ENS_18_Mod_range_hashingENS_20_Default_ranged_hashELb1EEC2Ev:
.LFB3735:
	pushq	%rbp
	.seh_pushreg	%rbp
	movq	%rsp, %rbp
	.seh_setframe	%rbp, 0
	subq	$32, %rsp
	.seh_stackalloc	32
	.seh_endprologue
	movq	%rcx, 16(%rbp)
	movq	16(%rbp), %rax
	movq	%rax, %rcx
	call	_ZNSt8__detail21_Hashtable_ebo_helperILi1ESt4hashINSt7__cxx1112basic_stringIcSt11char_traitsIcESaIcEEEELb1EEC2Ev
	nop
	addq	$32, %rsp
	popq	%rbp
	ret
	.seh_endproc
	.section	.text$_ZNSt8__detail15_Hashtable_baseINSt7__cxx1112basic_stringIcSt11char_traitsIcESaIcEEESt4pairIKS6_S6_ENS_10_Select1stESt8equal_toIS6_ESt4hashIS6_ENS_18_Mod_range_hashingENS_20_Default_ranged_hashENS_17_Hashtable_traitsILb1ELb0ELb1EEEEC2Ev,"x"
	.linkonce discard
	.align 2
	.globl	_ZNSt8__detail15_Hashtable_baseINSt7__cxx1112basic_stringIcSt11char_traitsIcESaIcEEESt4pairIKS6_S6_ENS_10_Select1stESt8equal_toIS6_ESt4hashIS6_ENS_18_Mod_range_hashingENS_20_Default_ranged_hashENS_17_Hashtable_traitsILb1ELb0ELb1EEEEC2Ev
	.def	_ZNSt8__detail15_Hashtable_baseINSt7__cxx1112basic_stringIcSt11char_traitsIcESaIcEEESt4pairIKS6_S6_ENS_10_Select1stESt8equal_toIS6_ESt4hashIS6_ENS_18_Mod_range_hashingENS_20_Default_ranged_hashENS_17_Hashtable_traitsILb1ELb0ELb1EEEEC2Ev;	.scl	2;	.type	32;	.endef
	.seh_proc	_ZNSt8__detail15_Hashtable_baseINSt7__cxx1112basic_stringIcSt11char_traitsIcESaIcEEESt4pairIKS6_S6_ENS_10_Select1stESt8equal_toIS6_ESt4hashIS6_ENS_18_Mod_range_hashingENS_20_Default_ranged_hashENS_17_Hashtable_traitsILb1ELb0ELb1EEEEC2Ev
_ZNSt8__detail15_Hashtable_baseINSt7__cxx1112basic_stringIcSt11char_traitsIcESaIcEEESt4pairIKS6_S6_ENS_10_Select1stESt8equal_toIS6_ESt4hashIS6_ENS_18_Mod_range_hashingENS_20_Default_ranged_hashENS_17_Hashtable_traitsILb1ELb0ELb1EEEEC2Ev:
.LFB3737:
	pushq	%rbp
	.seh_pushreg	%rbp
	movq	%rsp, %rbp
	.seh_setframe	%rbp, 0
	subq	$32, %rsp
	.seh_stackalloc	32
	.seh_endprologue
	movq	%rcx, 16(%rbp)
	movq	16(%rbp), %rax
	movq	%rax, %rcx
	call	_ZNSt8__detail15_Hash_code_baseINSt7__cxx1112basic_stringIcSt11char_traitsIcESaIcEEESt4pairIKS6_S6_ENS_10_Select1stESt4hashIS6_ENS_18_Mod_range_hashingENS_20_Default_ranged_hashELb1EEC2Ev
	movq	16(%rbp), %rax
	movq	%rax, %rcx
	call	_ZNSt8__detail21_Hashtable_ebo_helperILi0ESt8equal_toINSt7__cxx1112basic_stringIcSt11char_traitsIcESaIcEEEELb1EEC2Ev
	nop
	addq	$32, %rsp
	popq	%rbp
	ret
	.seh_endproc
	.section	.text$_ZNSt8__detail21_Hashtable_ebo_helperILi0ESaINS_10_Hash_nodeISt4pairIKNSt7__cxx1112basic_stringIcSt11char_traitsIcESaIcEEES8_ELb1EEEELb1EED2Ev,"x"
	.linkonce discard
	.align 2
	.globl	_ZNSt8__detail21_Hashtable_ebo_helperILi0ESaINS_10_Hash_nodeISt4pairIKNSt7__cxx1112basic_stringIcSt11char_traitsIcESaIcEEES8_ELb1EEEELb1EED2Ev
	.def	_ZNSt8__detail21_Hashtable_ebo_helperILi0ESaINS_10_Hash_nodeISt4pairIKNSt7__cxx1112basic_stringIcSt11char_traitsIcESaIcEEES8_ELb1EEEELb1EED2Ev;	.scl	2;	.type	32;	.endef
	.seh_proc	_ZNSt8__detail21_Hashtable_ebo_helperILi0ESaINS_10_Hash_nodeISt4pairIKNSt7__cxx1112basic_stringIcSt11char_traitsIcESaIcEEES8_ELb1EEEELb1EED2Ev
_ZNSt8__detail21_Hashtable_ebo_helperILi0ESaINS_10_Hash_nodeISt4pairIKNSt7__cxx1112basic_stringIcSt11char_traitsIcESaIcEEES8_ELb1EEEELb1EED2Ev:
.LFB3741:
	pushq	%rbp
	.seh_pushreg	%rbp
	movq	%rsp, %rbp
	.seh_setframe	%rbp, 0
	subq	$48, %rsp
	.seh_stackalloc	48
	.seh_endprologue
	movq	%rcx, 16(%rbp)
	movq	16(%rbp), %rax
	movq	%rax, -8(%rbp)
	movq	-8(%rbp), %rax
	movq	%rax, %rcx
	call	_ZNSt15__new_allocatorINSt8__detail10_Hash_nodeISt4pairIKNSt7__cxx1112basic_stringIcSt11char_traitsIcESaIcEEES8_ELb1EEEED2Ev
	nop
	nop
	addq	$48, %rsp
	popq	%rbp
	ret
	.seh_endproc
	.section	.text$_ZNSt8__detail16_Hashtable_allocISaINS_10_Hash_nodeISt4pairIKNSt7__cxx1112basic_stringIcSt11char_traitsIcESaIcEEES8_ELb1EEEEEC2Ev,"x"
	.linkonce discard
	.align 2
	.globl	_ZNSt8__detail16_Hashtable_allocISaINS_10_Hash_nodeISt4pairIKNSt7__cxx1112basic_stringIcSt11char_traitsIcESaIcEEES8_ELb1EEEEEC2Ev
	.def	_ZNSt8__detail16_Hashtable_allocISaINS_10_Hash_nodeISt4pairIKNSt7__cxx1112basic_stringIcSt11char_traitsIcESaIcEEES8_ELb1EEEEEC2Ev;	.scl	2;	.type	32;	.endef
	.seh_proc	_ZNSt8__detail16_Hashtable_allocISaINS_10_Hash_nodeISt4pairIKNSt7__cxx1112basic_stringIcSt11char_traitsIcESaIcEEES8_ELb1EEEEEC2Ev
_ZNSt8__detail16_Hashtable_allocISaINS_10_Hash_nodeISt4pairIKNSt7__cxx1112basic_stringIcSt11char_traitsIcESaIcEEES8_ELb1EEEEEC2Ev:
.LFB3743:
	pushq	%rbp
	.seh_pushreg	%rbp
	movq	%rsp, %rbp
	.seh_setframe	%rbp, 0
	subq	$32, %rsp
	.seh_stackalloc	32
	.seh_endprologue
	movq	%rcx, 16(%rbp)
	movq	16(%rbp), %rax
	movq	%rax, %rcx
	call	_ZNSt8__detail21_Hashtable_ebo_helperILi0ESaINS_10_Hash_nodeISt4pairIKNSt7__cxx1112basic_stringIcSt11char_traitsIcESaIcEEES8_ELb1EEEELb1EEC2Ev
	nop
	addq	$32, %rsp
	popq	%rbp
	ret
	.seh_endproc
	.section	.text$_ZNSt8__detail16_Hashtable_allocISaINS_10_Hash_nodeISt4pairIKNSt7__cxx1112basic_stringIcSt11char_traitsIcESaIcEEES8_ELb1EEEEED2Ev,"x"
	.linkonce discard
	.align 2
	.globl	_ZNSt8__detail16_Hashtable_allocISaINS_10_Hash_nodeISt4pairIKNSt7__cxx1112basic_stringIcSt11char_traitsIcESaIcEEES8_ELb1EEEEED2Ev
	.def	_ZNSt8__detail16_Hashtable_allocISaINS_10_Hash_nodeISt4pairIKNSt7__cxx1112basic_stringIcSt11char_traitsIcESaIcEEES8_ELb1EEEEED2Ev;	.scl	2;	.type	32;	.endef
	.seh_proc	_ZNSt8__detail16_Hashtable_allocISaINS_10_Hash_nodeISt4pairIKNSt7__cxx1112basic_stringIcSt11char_traitsIcESaIcEEES8_ELb1EEEEED2Ev
_ZNSt8__detail16_Hashtable_allocISaINS_10_Hash_nodeISt4pairIKNSt7__cxx1112basic_stringIcSt11char_traitsIcESaIcEEES8_ELb1EEEEED2Ev:
.LFB3746:
	pushq	%rbp
	.seh_pushreg	%rbp
	movq	%rsp, %rbp
	.seh_setframe	%rbp, 0
	subq	$32, %rsp
	.seh_stackalloc	32
	.seh_endprologue
	movq	%rcx, 16(%rbp)
	movq	16(%rbp), %rax
	movq	%rax, %rcx
	call	_ZNSt8__detail21_Hashtable_ebo_helperILi0ESaINS_10_Hash_nodeISt4pairIKNSt7__cxx1112basic_stringIcSt11char_traitsIcESaIcEEES8_ELb1EEEELb1EED2Ev
	nop
	addq	$32, %rsp
	popq	%rbp
	ret
	.seh_endproc
	.section	.text$_ZNSt10_HashtableINSt7__cxx1112basic_stringIcSt11char_traitsIcESaIcEEESt4pairIKS5_S5_ESaIS8_ENSt8__detail10_Select1stESt8equal_toIS5_ESt4hashIS5_ENSA_18_Mod_range_hashingENSA_20_Default_ranged_hashENSA_20_Prime_rehash_policyENSA_17_Hashtable_traitsILb1ELb0ELb1EEEEC1Ev,"x"
	.linkonce discard
	.align 2
	.globl	_ZNSt10_HashtableINSt7__cxx1112basic_stringIcSt11char_traitsIcESaIcEEESt4pairIKS5_S5_ESaIS8_ENSt8__detail10_Select1stESt8equal_toIS5_ESt4hashIS5_ENSA_18_Mod_range_hashingENSA_20_Default_ranged_hashENSA_20_Prime_rehash_policyENSA_17_Hashtable_traitsILb1ELb0ELb1EEEEC1Ev
	.def	_ZNSt10_HashtableINSt7__cxx1112basic_stringIcSt11char_traitsIcESaIcEEESt4pairIKS5_S5_ESaIS8_ENSt8__detail10_Select1stESt8equal_toIS5_ESt4hashIS5_ENSA_18_Mod_range_hashingENSA_20_Default_ranged_hashENSA_20_Prime_rehash_policyENSA_17_Hashtable_traitsILb1ELb0ELb1EEEEC1Ev;	.scl	2;	.type	32;	.endef
	.seh_proc	_ZNSt10_HashtableINSt7__cxx1112basic_stringIcSt11char_traitsIcESaIcEEESt4pairIKS5_S5_ESaIS8_ENSt8__detail10_Select1stESt8equal_toIS5_ESt4hashIS5_ENSA_18_Mod_range_hashingENSA_20_Default_ranged_hashENSA_20_Prime_rehash_policyENSA_17_Hashtable_traitsILb1ELb0ELb1EEEEC1Ev
_ZNSt10_HashtableINSt7__cxx1112basic_stringIcSt11char_traitsIcESaIcEEESt4pairIKS5_S5_ESaIS8_ENSt8__detail10_Select1stESt8equal_toIS5_ESt4hashIS5_ENSA_18_Mod_range_hashingENSA_20_Default_ranged_hashENSA_20_Prime_rehash_policyENSA_17_Hashtable_traitsILb1ELb0ELb1EEEEC1Ev:
.LFB3749:
	pushq	%rbp
	.seh_pushreg	%rbp
	movq	%rsp, %rbp
	.seh_setframe	%rbp, 0
	subq	$32, %rsp
	.seh_stackalloc	32
	.seh_endprologue
	movq	%rcx, 16(%rbp)
	movq	16(%rbp), %rax
	movq	%rax, %rcx
	call	_ZNSt8__detail15_Hashtable_baseINSt7__cxx1112basic_stringIcSt11char_traitsIcESaIcEEESt4pairIKS6_S6_ENS_10_Select1stESt8equal_toIS6_ESt4hashIS6_ENS_18_Mod_range_hashingENS_20_Default_ranged_hashENS_17_Hashtable_traitsILb1ELb0ELb1EEEEC2Ev
	movq	16(%rbp), %rax
	movq	%rax, %rcx
	call	_ZNSt8__detail16_Hashtable_allocISaINS_10_Hash_nodeISt4pairIKNSt7__cxx1112basic_stringIcSt11char_traitsIcESaIcEEES8_ELb1EEEEEC2Ev
	movq	16(%rbp), %rax
	leaq	48(%rax), %rdx
	movq	16(%rbp), %rax
	movq	%rdx, (%rax)
	movq	16(%rbp), %rax
	movq	$1, 8(%rax)
	movq	16(%rbp), %rax
	addq	$16, %rax
	movq	%rax, %rcx
	call	_ZNSt8__detail15_Hash_node_baseC1Ev
	movq	16(%rbp), %rax
	movq	$0, 24(%rax)
	movq	16(%rbp), %rax
	addq	$32, %rax
	movss	.LC61(%rip), %xmm1
	movq	%rax, %rcx
	call	_ZNSt8__detail20_Prime_rehash_policyC1Ef
	movq	16(%rbp), %rax
	movq	$0, 48(%rax)
	nop
	addq	$32, %rsp
	popq	%rbp
	ret
	.seh_endproc
	.section	.text$_ZNSt13unordered_mapINSt7__cxx1112basic_stringIcSt11char_traitsIcESaIcEEES5_St4hashIS5_ESt8equal_toIS5_ESaISt4pairIKS5_S5_EEEC1Ev,"x"
	.linkonce discard
	.align 2
	.globl	_ZNSt13unordered_mapINSt7__cxx1112basic_stringIcSt11char_traitsIcESaIcEEES5_St4hashIS5_ESt8equal_toIS5_ESaISt4pairIKS5_S5_EEEC1Ev
	.def	_ZNSt13unordered_mapINSt7__cxx1112basic_stringIcSt11char_traitsIcESaIcEEES5_St4hashIS5_ESt8equal_toIS5_ESaISt4pairIKS5_S5_EEEC1Ev;	.scl	2;	.type	32;	.endef
	.seh_proc	_ZNSt13unordered_mapINSt7__cxx1112basic_stringIcSt11char_traitsIcESaIcEEES5_St4hashIS5_ESt8equal_toIS5_ESaISt4pairIKS5_S5_EEEC1Ev
_ZNSt13unordered_mapINSt7__cxx1112basic_stringIcSt11char_traitsIcESaIcEEES5_St4hashIS5_ESt8equal_toIS5_ESaISt4pairIKS5_S5_EEEC1Ev:
.LFB3751:
	pushq	%rbp
	.seh_pushreg	%rbp
	movq	%rsp, %rbp
	.seh_setframe	%rbp, 0
	subq	$32, %rsp
	.seh_stackalloc	32
	.seh_endprologue
	movq	%rcx, 16(%rbp)
	movq	16(%rbp), %rax
	movq	%rax, %rcx
	call	_ZNSt10_HashtableINSt7__cxx1112basic_stringIcSt11char_traitsIcESaIcEEESt4pairIKS5_S5_ESaIS8_ENSt8__detail10_Select1stESt8equal_toIS5_ESt4hashIS5_ENSA_18_Mod_range_hashingENSA_20_Default_ranged_hashENSA_20_Prime_rehash_policyENSA_17_Hashtable_traitsILb1ELb0ELb1EEEEC1Ev
	nop
	addq	$32, %rsp
	popq	%rbp
	ret
	.seh_endproc
	.section	.text$_ZNSt13unordered_mapINSt7__cxx1112basic_stringIcSt11char_traitsIcESaIcEEES5_St4hashIS5_ESt8equal_toIS5_ESaISt4pairIKS5_S5_EEED1Ev,"x"
	.linkonce discard
	.align 2
	.globl	_ZNSt13unordered_mapINSt7__cxx1112basic_stringIcSt11char_traitsIcESaIcEEES5_St4hashIS5_ESt8equal_toIS5_ESaISt4pairIKS5_S5_EEED1Ev
	.def	_ZNSt13unordered_mapINSt7__cxx1112basic_stringIcSt11char_traitsIcESaIcEEES5_St4hashIS5_ESt8equal_toIS5_ESaISt4pairIKS5_S5_EEED1Ev;	.scl	2;	.type	32;	.endef
	.seh_proc	_ZNSt13unordered_mapINSt7__cxx1112basic_stringIcSt11char_traitsIcESaIcEEES5_St4hashIS5_ESt8equal_toIS5_ESaISt4pairIKS5_S5_EEED1Ev
_ZNSt13unordered_mapINSt7__cxx1112basic_stringIcSt11char_traitsIcESaIcEEES5_St4hashIS5_ESt8equal_toIS5_ESaISt4pairIKS5_S5_EEED1Ev:
.LFB3754:
	pushq	%rbp
	.seh_pushreg	%rbp
	movq	%rsp, %rbp
	.seh_setframe	%rbp, 0
	subq	$32, %rsp
	.seh_stackalloc	32
	.seh_endprologue
	movq	%rcx, 16(%rbp)
	movq	16(%rbp), %rax
	movq	%rax, %rcx
	call	_ZNSt10_HashtableINSt7__cxx1112basic_stringIcSt11char_traitsIcESaIcEEESt4pairIKS5_S5_ESaIS8_ENSt8__detail10_Select1stESt8equal_toIS5_ESt4hashIS5_ENSA_18_Mod_range_hashingENSA_20_Default_ranged_hashENSA_20_Prime_rehash_policyENSA_17_Hashtable_traitsILb1ELb0ELb1EEEED1Ev
	nop
	addq	$32, %rsp
	popq	%rbp
	ret
	.seh_endproc
	.section .rdata,"dr"
.LC62:
	.ascii "output.asm\0"
	.align 8
.LC63:
	.ascii "Could not open output.asm file\0"
	.section	.text$_ZN17AssemblyGeneratorC1ERKSt6vectorINSt7__cxx1112basic_stringIcSt11char_traitsIcESaIcEEESaIS6_EE,"x"
	.linkonce discard
	.align 2
	.globl	_ZN17AssemblyGeneratorC1ERKSt6vectorINSt7__cxx1112basic_stringIcSt11char_traitsIcESaIcEEESaIS6_EE
	.def	_ZN17AssemblyGeneratorC1ERKSt6vectorINSt7__cxx1112basic_stringIcSt11char_traitsIcESaIcEEESaIS6_EE;	.scl	2;	.type	32;	.endef
	.seh_proc	_ZN17AssemblyGeneratorC1ERKSt6vectorINSt7__cxx1112basic_stringIcSt11char_traitsIcESaIcEEESaIS6_EE
_ZN17AssemblyGeneratorC1ERKSt6vectorINSt7__cxx1112basic_stringIcSt11char_traitsIcESaIcEEESaIS6_EE:
.LFB3756:
	pushq	%rbp
	.seh_pushreg	%rbp
	pushq	%rsi
	.seh_pushreg	%rsi
	pushq	%rbx
	.seh_pushreg	%rbx
	subq	$32, %rsp
	.seh_stackalloc	32
	leaq	32(%rsp), %rbp
	.seh_setframe	%rbp, 32
	.seh_endprologue
	movq	%rcx, 32(%rbp)
	movq	%rdx, 40(%rbp)
	movq	32(%rbp), %rax
	movq	40(%rbp), %rdx
	movq	%rax, %rcx
.LEHB220:
	call	_ZNSt6vectorINSt7__cxx1112basic_stringIcSt11char_traitsIcESaIcEEESaIS5_EEC1ERKS7_
.LEHE220:
	movq	32(%rbp), %rax
	addq	$24, %rax
	movq	%rax, %rcx
	call	_ZNSt13unordered_mapINSt7__cxx1112basic_stringIcSt11char_traitsIcESaIcEEES5_St4hashIS5_ESt8equal_toIS5_ESaISt4pairIKS5_S5_EEEC1Ev
	movq	32(%rbp), %rax
	addq	$80, %rax
	movq	%rax, %rcx
	call	_ZNSt13unordered_mapINSt7__cxx1112basic_stringIcSt11char_traitsIcESaIcEEES5_St4hashIS5_ESt8equal_toIS5_ESaISt4pairIKS5_S5_EEEC1Ev
	movq	32(%rbp), %rax
	addq	$136, %rax
	movq	%rax, %rcx
.LEHB221:
	call	_ZNSt14basic_ofstreamIcSt11char_traitsIcEEC1Ev
.LEHE221:
	movq	32(%rbp), %rax
	movl	$0, 616(%rax)
	movq	32(%rbp), %rax
	movl	$0, 620(%rax)
	movq	32(%rbp), %rax
	addq	$136, %rax
	movl	$16, %r8d
	leaq	.LC62(%rip), %rdx
	movq	%rax, %rcx
.LEHB222:
	call	_ZNSt14basic_ofstreamIcSt11char_traitsIcEE4openEPKcSt13_Ios_Openmode
.LEHE222:
	movq	32(%rbp), %rax
	addq	$136, %rax
	movq	%rax, %rcx
	call	_ZNSt14basic_ofstreamIcSt11char_traitsIcEE7is_openEv
	xorl	$1, %eax
	testb	%al, %al
	je	.L590
	movl	$16, %ecx
	call	__cxa_allocate_exception
	movq	%rax, %rbx
	leaq	.LC63(%rip), %rax
	movq	%rax, %rdx
	movq	%rbx, %rcx
.LEHB223:
	call	_ZNSt13runtime_errorC1EPKc
.LEHE223:
	movq	.refptr._ZNSt13runtime_errorD1Ev(%rip), %r8
	leaq	_ZTISt13runtime_error(%rip), %rax
	movq	%rax, %rdx
	movq	%rbx, %rcx
.LEHB224:
	call	__cxa_throw
.LEHE224:
.L589:
	movq	%rax, %rsi
	movq	%rbx, %rcx
	call	__cxa_free_exception
	movq	%rsi, %rbx
	jmp	.L585
.L588:
	movq	%rax, %rbx
.L585:
	movq	32(%rbp), %rax
	addq	$136, %rax
	movq	%rax, %rcx
	call	_ZNSt14basic_ofstreamIcSt11char_traitsIcEED1Ev
	jmp	.L586
.L587:
	movq	%rax, %rbx
.L586:
	movq	32(%rbp), %rax
	addq	$80, %rax
	movq	%rax, %rcx
	call	_ZNSt13unordered_mapINSt7__cxx1112basic_stringIcSt11char_traitsIcESaIcEEES5_St4hashIS5_ESt8equal_toIS5_ESaISt4pairIKS5_S5_EEED1Ev
	movq	32(%rbp), %rax
	addq	$24, %rax
	movq	%rax, %rcx
	call	_ZNSt13unordered_mapINSt7__cxx1112basic_stringIcSt11char_traitsIcESaIcEEES5_St4hashIS5_ESt8equal_toIS5_ESaISt4pairIKS5_S5_EEED1Ev
	movq	32(%rbp), %rax
	movq	%rax, %rcx
	call	_ZNSt6vectorINSt7__cxx1112basic_stringIcSt11char_traitsIcESaIcEEESaIS5_EED1Ev
	movq	%rbx, %rax
	movq	%rax, %rcx
.LEHB225:
	call	_Unwind_Resume
.LEHE225:
.L590:
	nop
	addq	$32, %rsp
	popq	%rbx
	popq	%rsi
	popq	%rbp
	ret
	.seh_handler	__gxx_personality_seh0, @unwind, @except
	.seh_handlerdata
.LLSDA3756:
	.byte	0xff
	.byte	0xff
	.byte	0x1
	.uleb128 .LLSDACSE3756-.LLSDACSB3756
.LLSDACSB3756:
	.uleb128 .LEHB220-.LFB3756
	.uleb128 .LEHE220-.LEHB220
	.uleb128 0
	.uleb128 0
	.uleb128 .LEHB221-.LFB3756
	.uleb128 .LEHE221-.LEHB221
	.uleb128 .L587-.LFB3756
	.uleb128 0
	.uleb128 .LEHB222-.LFB3756
	.uleb128 .LEHE222-.LEHB222
	.uleb128 .L588-.LFB3756
	.uleb128 0
	.uleb128 .LEHB223-.LFB3756
	.uleb128 .LEHE223-.LEHB223
	.uleb128 .L589-.LFB3756
	.uleb128 0
	.uleb128 .LEHB224-.LFB3756
	.uleb128 .LEHE224-.LEHB224
	.uleb128 .L588-.LFB3756
	.uleb128 0
	.uleb128 .LEHB225-.LFB3756
	.uleb128 .LEHE225-.LEHB225
	.uleb128 0
	.uleb128 0
.LLSDACSE3756:
	.section	.text$_ZN17AssemblyGeneratorC1ERKSt6vectorINSt7__cxx1112basic_stringIcSt11char_traitsIcESaIcEEESaIS6_EE,"x"
	.linkonce discard
	.seh_endproc
	.section	.text$_ZN17AssemblyGenerator16generateAssemblyEv,"x"
	.linkonce discard
	.align 2
	.globl	_ZN17AssemblyGenerator16generateAssemblyEv
	.def	_ZN17AssemblyGenerator16generateAssemblyEv;	.scl	2;	.type	32;	.endef
	.seh_proc	_ZN17AssemblyGenerator16generateAssemblyEv
_ZN17AssemblyGenerator16generateAssemblyEv:
.LFB3757:
	pushq	%rbp
	.seh_pushreg	%rbp
	movq	%rsp, %rbp
	.seh_setframe	%rbp, 0
	subq	$32, %rsp
	.seh_stackalloc	32
	.seh_endprologue
	movq	%rcx, 16(%rbp)
	movq	16(%rbp), %rax
	movq	%rax, %rcx
	call	_ZN17AssemblyGenerator11writeHeaderEv
	movq	16(%rbp), %rax
	movq	%rax, %rcx
	call	_ZN17AssemblyGenerator16writeDataSectionEv
	movq	16(%rbp), %rax
	movq	%rax, %rcx
	call	_ZN17AssemblyGenerator16writeCodeSectionEv
	movq	16(%rbp), %rax
	addq	$136, %rax
	movq	%rax, %rcx
	call	_ZNSt14basic_ofstreamIcSt11char_traitsIcEE5closeEv
	nop
	addq	$32, %rsp
	popq	%rbp
	ret
	.seh_endproc
	.section .rdata,"dr"
.LC64:
	.ascii ".586\12\0"
.LC65:
	.ascii ".model flat, c\12\0"
.LC66:
	.ascii ".stack 4096\12\12\0"
.LC67:
	.ascii "extern printf:near\12\0"
.LC68:
	.ascii "extern exit:near\12\12\0"
	.section	.text$_ZN17AssemblyGenerator11writeHeaderEv,"x"
	.linkonce discard
	.align 2
	.globl	_ZN17AssemblyGenerator11writeHeaderEv
	.def	_ZN17AssemblyGenerator11writeHeaderEv;	.scl	2;	.type	32;	.endef
	.seh_proc	_ZN17AssemblyGenerator11writeHeaderEv
_ZN17AssemblyGenerator11writeHeaderEv:
.LFB3758:
	pushq	%rbp
	.seh_pushreg	%rbp
	movq	%rsp, %rbp
	.seh_setframe	%rbp, 0
	subq	$32, %rsp
	.seh_stackalloc	32
	.seh_endprologue
	movq	%rcx, 16(%rbp)
	movq	16(%rbp), %rax
	addq	$136, %rax
	leaq	.LC64(%rip), %rdx
	movq	%rax, %rcx
	call	_ZStlsISt11char_traitsIcEERSt13basic_ostreamIcT_ES5_PKc
	movq	16(%rbp), %rax
	addq	$136, %rax
	leaq	.LC65(%rip), %rdx
	movq	%rax, %rcx
	call	_ZStlsISt11char_traitsIcEERSt13basic_ostreamIcT_ES5_PKc
	movq	16(%rbp), %rax
	addq	$136, %rax
	leaq	.LC66(%rip), %rdx
	movq	%rax, %rcx
	call	_ZStlsISt11char_traitsIcEERSt13basic_ostreamIcT_ES5_PKc
	movq	16(%rbp), %rax
	addq	$136, %rax
	leaq	.LC67(%rip), %rdx
	movq	%rax, %rcx
	call	_ZStlsISt11char_traitsIcEERSt13basic_ostreamIcT_ES5_PKc
	movq	16(%rbp), %rax
	addq	$136, %rax
	leaq	.LC68(%rip), %rdx
	movq	%rax, %rcx
	call	_ZStlsISt11char_traitsIcEERSt13basic_ostreamIcT_ES5_PKc
	nop
	addq	$32, %rsp
	popq	%rbp
	ret
	.seh_endproc
	.section .rdata,"dr"
.LC69:
	.ascii ".data\12\0"
	.align 8
.LC70:
	.ascii "\11_printIntFormat BYTE \"%d\", 0\12\0"
	.align 8
.LC71:
	.ascii "\11_printFloatFormat BYTE \"%f\", 0\12\0"
	.align 8
.LC72:
	.ascii "\11_printStrFormat BYTE \"%s\", 0\12\12\0"
.LC73:
	.ascii "\11\0"
.LC74:
	.ascii " DWORD 0\12\0"
.LC75:
	.ascii " REAL4 0.0\12\0"
.LC76:
	.ascii "\12\0"
	.section	.text$_ZN17AssemblyGenerator16writeDataSectionEv,"x"
	.linkonce discard
	.align 2
	.globl	_ZN17AssemblyGenerator16writeDataSectionEv
	.def	_ZN17AssemblyGenerator16writeDataSectionEv;	.scl	2;	.type	32;	.endef
	.seh_proc	_ZN17AssemblyGenerator16writeDataSectionEv
_ZN17AssemblyGenerator16writeDataSectionEv:
.LFB3759:
	pushq	%rbp
	.seh_pushreg	%rbp
	movq	%rsp, %rbp
	.seh_setframe	%rbp, 0
	subq	$80, %rsp
	.seh_stackalloc	80
	.seh_endprologue
	movq	%rcx, 16(%rbp)
	movq	16(%rbp), %rax
	addq	$136, %rax
	leaq	.LC69(%rip), %rdx
	movq	%rax, %rcx
	call	_ZStlsISt11char_traitsIcEERSt13basic_ostreamIcT_ES5_PKc
	movq	16(%rbp), %rax
	addq	$136, %rax
	leaq	.LC70(%rip), %rdx
	movq	%rax, %rcx
	call	_ZStlsISt11char_traitsIcEERSt13basic_ostreamIcT_ES5_PKc
	movq	16(%rbp), %rax
	addq	$136, %rax
	leaq	.LC71(%rip), %rdx
	movq	%rax, %rcx
	call	_ZStlsISt11char_traitsIcEERSt13basic_ostreamIcT_ES5_PKc
	movq	16(%rbp), %rax
	addq	$136, %rax
	leaq	.LC72(%rip), %rdx
	movq	%rax, %rcx
	call	_ZStlsISt11char_traitsIcEERSt13basic_ostreamIcT_ES5_PKc
	movq	16(%rbp), %rax
	addq	$80, %rax
	movq	%rax, -8(%rbp)
	movq	-8(%rbp), %rax
	movq	%rax, %rcx
	call	_ZNSt13unordered_mapINSt7__cxx1112basic_stringIcSt11char_traitsIcESaIcEEES5_St4hashIS5_ESt8equal_toIS5_ESaISt4pairIKS5_S5_EEE5beginEv
	movq	%rax, -40(%rbp)
	movq	-8(%rbp), %rax
	movq	%rax, %rcx
	call	_ZNSt13unordered_mapINSt7__cxx1112basic_stringIcSt11char_traitsIcESaIcEEES5_St4hashIS5_ESt8equal_toIS5_ESaISt4pairIKS5_S5_EEE3endEv
	movq	%rax, -48(%rbp)
	jmp	.L594
.L600:
	leaq	-40(%rbp), %rax
	movq	%rax, %rcx
	call	_ZNKSt8__detail14_Node_iteratorISt4pairIKNSt7__cxx1112basic_stringIcSt11char_traitsIcESaIcEEES7_ELb0ELb1EEdeEv
	movq	%rax, -16(%rbp)
	movq	-16(%rbp), %rax
	movq	%rax, -24(%rbp)
	movq	-16(%rbp), %rax
	addq	$32, %rax
	movq	%rax, -32(%rbp)
	movq	-32(%rbp), %rax
	leaq	.LC0(%rip), %rdx
	movq	%rax, %rcx
	call	_ZSteqIcSt11char_traitsIcESaIcEEbRKNSt7__cxx1112basic_stringIT_T0_T1_EEPKS5_
	testb	%al, %al
	je	.L595
	movq	16(%rbp), %rax
	addq	$136, %rax
	leaq	.LC73(%rip), %rdx
	movq	%rax, %rcx
	call	_ZStlsISt11char_traitsIcEERSt13basic_ostreamIcT_ES5_PKc
	movq	%rax, %rcx
	movq	-24(%rbp), %rax
	movq	%rax, %rdx
	call	_ZStlsIcSt11char_traitsIcESaIcEERSt13basic_ostreamIT_T0_ES7_RKNSt7__cxx1112basic_stringIS4_S5_T1_EE
	movq	%rax, %rcx
	leaq	.LC74(%rip), %rax
	movq	%rax, %rdx
	call	_ZStlsISt11char_traitsIcEERSt13basic_ostreamIcT_ES5_PKc
	jmp	.L596
.L595:
	movq	-32(%rbp), %rax
	leaq	.LC1(%rip), %rdx
	movq	%rax, %rcx
	call	_ZSteqIcSt11char_traitsIcESaIcEEbRKNSt7__cxx1112basic_stringIT_T0_T1_EEPKS5_
	testb	%al, %al
	jne	.L597
	movq	-32(%rbp), %rax
	leaq	.LC2(%rip), %rdx
	movq	%rax, %rcx
	call	_ZSteqIcSt11char_traitsIcESaIcEEbRKNSt7__cxx1112basic_stringIT_T0_T1_EEPKS5_
	testb	%al, %al
	je	.L598
.L597:
	movl	$1, %eax
	jmp	.L599
.L598:
	movl	$0, %eax
.L599:
	testb	%al, %al
	je	.L596
	movq	16(%rbp), %rax
	addq	$136, %rax
	leaq	.LC73(%rip), %rdx
	movq	%rax, %rcx
	call	_ZStlsISt11char_traitsIcEERSt13basic_ostreamIcT_ES5_PKc
	movq	%rax, %rcx
	movq	-24(%rbp), %rax
	movq	%rax, %rdx
	call	_ZStlsIcSt11char_traitsIcESaIcEERSt13basic_ostreamIT_T0_ES7_RKNSt7__cxx1112basic_stringIS4_S5_T1_EE
	movq	%rax, %rcx
	leaq	.LC75(%rip), %rax
	movq	%rax, %rdx
	call	_ZStlsISt11char_traitsIcEERSt13basic_ostreamIcT_ES5_PKc
.L596:
	leaq	-40(%rbp), %rax
	movq	%rax, %rcx
	call	_ZNSt8__detail14_Node_iteratorISt4pairIKNSt7__cxx1112basic_stringIcSt11char_traitsIcESaIcEEES7_ELb0ELb1EEppEv
.L594:
	leaq	-48(%rbp), %rdx
	leaq	-40(%rbp), %rax
	movq	%rax, %rcx
	call	_ZNSt8__detailneERKNS_19_Node_iterator_baseISt4pairIKNSt7__cxx1112basic_stringIcSt11char_traitsIcESaIcEEES7_ELb1EEESC_
	testb	%al, %al
	jne	.L600
	movq	16(%rbp), %rax
	addq	$136, %rax
	leaq	.LC76(%rip), %rdx
	movq	%rax, %rcx
	call	_ZStlsISt11char_traitsIcEERSt13basic_ostreamIcT_ES5_PKc
	nop
	addq	$80, %rsp
	popq	%rbp
	ret
	.seh_endproc
	.section .rdata,"dr"
.LC77:
	.ascii ".code\12\0"
.LC78:
	.ascii "main PROC\12\0"
.LC79:
	.ascii "\12\11; Program exit\12\0"
.LC80:
	.ascii "\11push 0\12\0"
.LC81:
	.ascii "\11call exit\12\0"
.LC82:
	.ascii "main ENDP\12\0"
.LC83:
	.ascii "END main\12\0"
	.section	.text$_ZN17AssemblyGenerator16writeCodeSectionEv,"x"
	.linkonce discard
	.align 2
	.globl	_ZN17AssemblyGenerator16writeCodeSectionEv
	.def	_ZN17AssemblyGenerator16writeCodeSectionEv;	.scl	2;	.type	32;	.endef
	.seh_proc	_ZN17AssemblyGenerator16writeCodeSectionEv
_ZN17AssemblyGenerator16writeCodeSectionEv:
.LFB3760:
	pushq	%rbp
	.seh_pushreg	%rbp
	movq	%rsp, %rbp
	.seh_setframe	%rbp, 0
	subq	$64, %rsp
	.seh_stackalloc	64
	.seh_endprologue
	movq	%rcx, 16(%rbp)
	movq	16(%rbp), %rax
	addq	$136, %rax
	leaq	.LC77(%rip), %rdx
	movq	%rax, %rcx
	call	_ZStlsISt11char_traitsIcEERSt13basic_ostreamIcT_ES5_PKc
	movq	16(%rbp), %rax
	addq	$136, %rax
	leaq	.LC78(%rip), %rdx
	movq	%rax, %rcx
	call	_ZStlsISt11char_traitsIcEERSt13basic_ostreamIcT_ES5_PKc
	movq	16(%rbp), %rax
	movq	%rax, -8(%rbp)
	movq	-8(%rbp), %rax
	movq	%rax, %rcx
	call	_ZNSt6vectorINSt7__cxx1112basic_stringIcSt11char_traitsIcESaIcEEESaIS5_EE5beginEv
	movq	%rax, -24(%rbp)
	movq	-8(%rbp), %rax
	movq	%rax, %rcx
	call	_ZNSt6vectorINSt7__cxx1112basic_stringIcSt11char_traitsIcESaIcEEESaIS5_EE3endEv
	movq	%rax, -32(%rbp)
	jmp	.L602
.L603:
	leaq	-24(%rbp), %rax
	movq	%rax, %rcx
	call	_ZNK9__gnu_cxx17__normal_iteratorIPNSt7__cxx1112basic_stringIcSt11char_traitsIcESaIcEEESt6vectorIS6_SaIS6_EEEdeEv
	movq	%rax, -16(%rbp)
	movq	-16(%rbp), %rdx
	movq	16(%rbp), %rax
	movq	%rax, %rcx
	call	_ZN17AssemblyGenerator18processInstructionERKNSt7__cxx1112basic_stringIcSt11char_traitsIcESaIcEEE
	leaq	-24(%rbp), %rax
	movq	%rax, %rcx
	call	_ZN9__gnu_cxx17__normal_iteratorIPNSt7__cxx1112basic_stringIcSt11char_traitsIcESaIcEEESt6vectorIS6_SaIS6_EEEppEv
.L602:
	leaq	-32(%rbp), %rdx
	leaq	-24(%rbp), %rax
	movq	%rax, %rcx
	call	_ZN9__gnu_cxxneIPNSt7__cxx1112basic_stringIcSt11char_traitsIcESaIcEEESt6vectorIS6_SaIS6_EEEEbRKNS_17__normal_iteratorIT_T0_EESG_
	testb	%al, %al
	jne	.L603
	movq	16(%rbp), %rax
	addq	$136, %rax
	leaq	.LC79(%rip), %rdx
	movq	%rax, %rcx
	call	_ZStlsISt11char_traitsIcEERSt13basic_ostreamIcT_ES5_PKc
	movq	16(%rbp), %rax
	addq	$136, %rax
	leaq	.LC80(%rip), %rdx
	movq	%rax, %rcx
	call	_ZStlsISt11char_traitsIcEERSt13basic_ostreamIcT_ES5_PKc
	movq	16(%rbp), %rax
	addq	$136, %rax
	leaq	.LC81(%rip), %rdx
	movq	%rax, %rcx
	call	_ZStlsISt11char_traitsIcEERSt13basic_ostreamIcT_ES5_PKc
	movq	16(%rbp), %rax
	addq	$136, %rax
	leaq	.LC82(%rip), %rdx
	movq	%rax, %rcx
	call	_ZStlsISt11char_traitsIcEERSt13basic_ostreamIcT_ES5_PKc
	movq	16(%rbp), %rax
	addq	$136, %rax
	leaq	.LC83(%rip), %rdx
	movq	%rax, %rcx
	call	_ZStlsISt11char_traitsIcEERSt13basic_ostreamIcT_ES5_PKc
	nop
	addq	$64, %rsp
	popq	%rbp
	ret
	.seh_endproc
	.section .rdata,"dr"
.LC84:
	.ascii "ifFalse\0"
.LC85:
	.ascii "goto\0"
.LC86:
	.ascii "\11jmp \0"
.LC87:
	.ascii "\11; Unhandled instruction: \0"
	.section	.text$_ZN17AssemblyGenerator18processInstructionERKNSt7__cxx1112basic_stringIcSt11char_traitsIcESaIcEEE,"x"
	.linkonce discard
	.align 2
	.globl	_ZN17AssemblyGenerator18processInstructionERKNSt7__cxx1112basic_stringIcSt11char_traitsIcESaIcEEE
	.def	_ZN17AssemblyGenerator18processInstructionERKNSt7__cxx1112basic_stringIcSt11char_traitsIcESaIcEEE;	.scl	2;	.type	32;	.endef
	.seh_proc	_ZN17AssemblyGenerator18processInstructionERKNSt7__cxx1112basic_stringIcSt11char_traitsIcESaIcEEE
_ZN17AssemblyGenerator18processInstructionERKNSt7__cxx1112basic_stringIcSt11char_traitsIcESaIcEEE:
.LFB3761:
	pushq	%rbp
	.seh_pushreg	%rbp
	pushq	%rbx
	.seh_pushreg	%rbx
	subq	$552, %rsp
	.seh_stackalloc	552
	leaq	128(%rsp), %rbp
	.seh_setframe	%rbp, 128
	.seh_endprologue
	movq	%rcx, 448(%rbp)
	movq	%rdx, 456(%rbp)
	movq	456(%rbp), %rdx
	leaq	32(%rbp), %rax
	movl	$8, %r8d
	movq	%rax, %rcx
.LEHB226:
	call	_ZNSt7__cxx1119basic_istringstreamIcSt11char_traitsIcESaIcEEC1ERKNS_12basic_stringIcS2_S3_EESt13_Ios_Openmode
.LEHE226:
	movq	%rbp, %rax
	movq	%rax, %rcx
	call	_ZNSt7__cxx1112basic_stringIcSt11char_traitsIcESaIcEEC1Ev
	leaq	-32(%rbp), %rax
	movq	%rax, %rcx
	call	_ZNSt7__cxx1112basic_stringIcSt11char_traitsIcESaIcEEC1Ev
	leaq	-64(%rbp), %rax
	movq	%rax, %rcx
	call	_ZNSt7__cxx1112basic_stringIcSt11char_traitsIcESaIcEEC1Ev
	leaq	-96(%rbp), %rax
	movq	%rax, %rcx
	call	_ZNSt7__cxx1112basic_stringIcSt11char_traitsIcESaIcEEC1Ev
	movq	%rbp, %rdx
	leaq	32(%rbp), %rax
	movq	%rax, %rcx
.LEHB227:
	call	_ZStrsIcSt11char_traitsIcESaIcEERSt13basic_istreamIT_T0_ES7_RNSt7__cxx1112basic_stringIS4_S5_T1_EE
	movq	%rbp, %rax
	movq	%rax, %rcx
	call	_ZNSt7__cxx1112basic_stringIcSt11char_traitsIcESaIcEE4backEv
	movzbl	(%rax), %eax
	cmpb	$58, %al
	sete	%al
	testb	%al, %al
	je	.L605
	movq	448(%rbp), %rax
	leaq	136(%rax), %rcx
	movq	%rbp, %rax
	movq	%rax, %rdx
	call	_ZStlsIcSt11char_traitsIcESaIcEERSt13basic_ostreamIT_T0_ES7_RKNSt7__cxx1112basic_stringIS4_S5_T1_EE
	movq	%rax, %rcx
	leaq	.LC76(%rip), %rax
	movq	%rax, %rdx
	call	_ZStlsISt11char_traitsIcEERSt13basic_ostreamIcT_ES5_PKc
	movl	$0, %ebx
	jmp	.L606
.L605:
	movq	%rbp, %rax
	leaq	.LC84(%rip), %rdx
	movq	%rax, %rcx
	call	_ZSteqIcSt11char_traitsIcESaIcEEbRKNSt7__cxx1112basic_stringIT_T0_T1_EEPKS5_
	testb	%al, %al
	je	.L607
	movq	456(%rbp), %rdx
	movq	448(%rbp), %rax
	movq	%rax, %rcx
	call	_ZN17AssemblyGenerator22processConditionalJumpERKNSt7__cxx1112basic_stringIcSt11char_traitsIcESaIcEEE
	movl	$0, %ebx
	jmp	.L606
.L607:
	movq	%rbp, %rax
	leaq	.LC85(%rip), %rdx
	movq	%rax, %rcx
	call	_ZSteqIcSt11char_traitsIcESaIcEEbRKNSt7__cxx1112basic_stringIT_T0_T1_EEPKS5_
	testb	%al, %al
	je	.L608
	leaq	-32(%rbp), %rdx
	leaq	32(%rbp), %rax
	movq	%rax, %rcx
	call	_ZStrsIcSt11char_traitsIcESaIcEERSt13basic_istreamIT_T0_ES7_RNSt7__cxx1112basic_stringIS4_S5_T1_EE
	movq	448(%rbp), %rax
	addq	$136, %rax
	leaq	.LC86(%rip), %rdx
	movq	%rax, %rcx
	call	_ZStlsISt11char_traitsIcEERSt13basic_ostreamIcT_ES5_PKc
	movq	%rax, %rcx
	leaq	-32(%rbp), %rax
	movq	%rax, %rdx
	call	_ZStlsIcSt11char_traitsIcESaIcEERSt13basic_ostreamIT_T0_ES7_RKNSt7__cxx1112basic_stringIS4_S5_T1_EE
	movq	%rax, %rcx
	leaq	.LC76(%rip), %rax
	movq	%rax, %rdx
	call	_ZStlsISt11char_traitsIcEERSt13basic_ostreamIcT_ES5_PKc
	movl	$0, %ebx
	jmp	.L606
.L608:
	movq	456(%rbp), %rax
	movl	$0, %r8d
	leaq	.LC53(%rip), %rdx
	movq	%rax, %rcx
	call	_ZNKSt7__cxx1112basic_stringIcSt11char_traitsIcESaIcEE4findEPKcy
	cmpq	$-1, %rax
	setne	%al
	testb	%al, %al
	je	.L609
	movq	456(%rbp), %rdx
	movq	448(%rbp), %rax
	movq	%rax, %rcx
	call	_ZN17AssemblyGenerator29processAssignmentOrComparisonERKNSt7__cxx1112basic_stringIcSt11char_traitsIcESaIcEEE
	movl	$0, %ebx
	jmp	.L606
.L609:
	movq	448(%rbp), %rax
	addq	$136, %rax
	leaq	.LC87(%rip), %rdx
	movq	%rax, %rcx
	call	_ZStlsISt11char_traitsIcEERSt13basic_ostreamIcT_ES5_PKc
	movq	%rax, %rcx
	movq	456(%rbp), %rax
	movq	%rax, %rdx
	call	_ZStlsIcSt11char_traitsIcESaIcEERSt13basic_ostreamIT_T0_ES7_RKNSt7__cxx1112basic_stringIS4_S5_T1_EE
	movq	%rax, %rcx
	leaq	.LC76(%rip), %rax
	movq	%rax, %rdx
	call	_ZStlsISt11char_traitsIcEERSt13basic_ostreamIcT_ES5_PKc
.LEHE227:
	movl	$1, %ebx
.L606:
	leaq	-96(%rbp), %rax
	movq	%rax, %rcx
	call	_ZNSt7__cxx1112basic_stringIcSt11char_traitsIcESaIcEED1Ev
	cmpl	$1, %ebx
	jne	.L610
	movl	$1, %ebx
	jmp	.L611
.L610:
	movl	$0, %ebx
.L611:
	leaq	-64(%rbp), %rax
	movq	%rax, %rcx
	call	_ZNSt7__cxx1112basic_stringIcSt11char_traitsIcESaIcEED1Ev
	cmpl	$1, %ebx
	jne	.L612
	movl	$1, %ebx
	jmp	.L613
.L612:
	movl	$0, %ebx
.L613:
	leaq	-32(%rbp), %rax
	movq	%rax, %rcx
	call	_ZNSt7__cxx1112basic_stringIcSt11char_traitsIcESaIcEED1Ev
	cmpl	$1, %ebx
	jne	.L614
	movl	$1, %ebx
	jmp	.L615
.L614:
	movl	$0, %ebx
.L615:
	movq	%rbp, %rax
	movq	%rax, %rcx
	call	_ZNSt7__cxx1112basic_stringIcSt11char_traitsIcESaIcEED1Ev
	cmpl	$1, %ebx
	jne	.L616
	movl	$1, %ebx
	jmp	.L617
.L616:
	movl	$0, %ebx
.L617:
	leaq	32(%rbp), %rax
	movq	%rax, %rcx
	call	_ZNSt7__cxx1119basic_istringstreamIcSt11char_traitsIcESaIcEED1Ev
	cmpl	$1, %ebx
	jmp	.L622
.L621:
	movq	%rax, %rbx
	leaq	-96(%rbp), %rax
	movq	%rax, %rcx
	call	_ZNSt7__cxx1112basic_stringIcSt11char_traitsIcESaIcEED1Ev
	leaq	-64(%rbp), %rax
	movq	%rax, %rcx
	call	_ZNSt7__cxx1112basic_stringIcSt11char_traitsIcESaIcEED1Ev
	leaq	-32(%rbp), %rax
	movq	%rax, %rcx
	call	_ZNSt7__cxx1112basic_stringIcSt11char_traitsIcESaIcEED1Ev
	movq	%rbp, %rax
	movq	%rax, %rcx
	call	_ZNSt7__cxx1112basic_stringIcSt11char_traitsIcESaIcEED1Ev
	leaq	32(%rbp), %rax
	movq	%rax, %rcx
	call	_ZNSt7__cxx1119basic_istringstreamIcSt11char_traitsIcESaIcEED1Ev
	movq	%rbx, %rax
	movq	%rax, %rcx
.LEHB228:
	call	_Unwind_Resume
	nop
.LEHE228:
.L622:
	addq	$552, %rsp
	popq	%rbx
	popq	%rbp
	ret
	.seh_handler	__gxx_personality_seh0, @unwind, @except
	.seh_handlerdata
.LLSDA3761:
	.byte	0xff
	.byte	0xff
	.byte	0x1
	.uleb128 .LLSDACSE3761-.LLSDACSB3761
.LLSDACSB3761:
	.uleb128 .LEHB226-.LFB3761
	.uleb128 .LEHE226-.LEHB226
	.uleb128 0
	.uleb128 0
	.uleb128 .LEHB227-.LFB3761
	.uleb128 .LEHE227-.LEHB227
	.uleb128 .L621-.LFB3761
	.uleb128 0
	.uleb128 .LEHB228-.LFB3761
	.uleb128 .LEHE228-.LEHB228
	.uleb128 0
	.uleb128 0
.LLSDACSE3761:
	.section	.text$_ZN17AssemblyGenerator18processInstructionERKNSt7__cxx1112basic_stringIcSt11char_traitsIcESaIcEEE,"x"
	.linkonce discard
	.seh_endproc
	.section .rdata,"dr"
.LC88:
	.ascii "0123456789.-\0"
	.align 8
.LC89:
	.ascii "\11; Unhandled complex assignment: \0"
	.section	.text$_ZN17AssemblyGenerator29processAssignmentOrComparisonERKNSt7__cxx1112basic_stringIcSt11char_traitsIcESaIcEEE,"x"
	.linkonce discard
	.align 2
	.globl	_ZN17AssemblyGenerator29processAssignmentOrComparisonERKNSt7__cxx1112basic_stringIcSt11char_traitsIcESaIcEEE
	.def	_ZN17AssemblyGenerator29processAssignmentOrComparisonERKNSt7__cxx1112basic_stringIcSt11char_traitsIcESaIcEEE;	.scl	2;	.type	32;	.endef
	.seh_proc	_ZN17AssemblyGenerator29processAssignmentOrComparisonERKNSt7__cxx1112basic_stringIcSt11char_traitsIcESaIcEEE
_ZN17AssemblyGenerator29processAssignmentOrComparisonERKNSt7__cxx1112basic_stringIcSt11char_traitsIcESaIcEEE:
.LFB3762:
	pushq	%rbp
	.seh_pushreg	%rbp
	pushq	%rbx
	.seh_pushreg	%rbx
	subq	$552, %rsp
	.seh_stackalloc	552
	leaq	128(%rsp), %rbp
	.seh_setframe	%rbp, 128
	.seh_endprologue
	movq	%rcx, 448(%rbp)
	movq	%rdx, 456(%rbp)
	movq	456(%rbp), %rdx
	leaq	32(%rbp), %rax
	movl	$8, %r8d
	movq	%rax, %rcx
.LEHB229:
	call	_ZNSt7__cxx1119basic_istringstreamIcSt11char_traitsIcESaIcEEC1ERKNS_12basic_stringIcS2_S3_EESt13_Ios_Openmode
.LEHE229:
	movq	%rbp, %rax
	movq	%rax, %rcx
	call	_ZNSt7__cxx1112basic_stringIcSt11char_traitsIcESaIcEEC1Ev
	leaq	-32(%rbp), %rax
	movq	%rax, %rcx
	call	_ZNSt7__cxx1112basic_stringIcSt11char_traitsIcESaIcEEC1Ev
	leaq	-64(%rbp), %rax
	movq	%rax, %rcx
	call	_ZNSt7__cxx1112basic_stringIcSt11char_traitsIcESaIcEEC1Ev
	leaq	-96(%rbp), %rax
	movq	%rax, %rcx
	call	_ZNSt7__cxx1112basic_stringIcSt11char_traitsIcESaIcEEC1Ev
	movq	%rbp, %rdx
	leaq	32(%rbp), %rax
	movq	%rax, %rcx
.LEHB230:
	call	_ZStrsIcSt11char_traitsIcESaIcEERSt13basic_istreamIT_T0_ES7_RNSt7__cxx1112basic_stringIS4_S5_T1_EE
	movq	%rax, %rcx
	leaq	-32(%rbp), %rax
	movq	%rax, %rdx
	call	_ZStrsIcSt11char_traitsIcESaIcEERSt13basic_istreamIT_T0_ES7_RNSt7__cxx1112basic_stringIS4_S5_T1_EE
	leaq	-64(%rbp), %rdx
	leaq	32(%rbp), %rax
	movq	%rax, %rcx
	call	_ZStrsIcSt11char_traitsIcESaIcEERSt13basic_istreamIT_T0_ES7_RNSt7__cxx1112basic_stringIS4_S5_T1_EE
	movq	(%rax), %rdx
	subq	$24, %rdx
	movq	(%rdx), %rdx
	addq	%rdx, %rax
	movq	%rax, %rcx
	call	_ZNKSt9basic_iosIcSt11char_traitsIcEEcvbEv
	testb	%al, %al
	je	.L624
	leaq	-64(%rbp), %rax
	movl	$0, %r8d
	leaq	.LC88(%rip), %rdx
	movq	%rax, %rcx
	call	_ZNKSt7__cxx1112basic_stringIcSt11char_traitsIcESaIcEE17find_first_not_ofEPKcy
	cmpq	$-1, %rax
	jne	.L624
	movl	$1, %eax
	jmp	.L625
.L624:
	movl	$0, %eax
.L625:
	testb	%al, %al
	je	.L626
	leaq	-64(%rbp), %rcx
	movq	%rbp, %rdx
	movq	448(%rbp), %rax
	movq	%rcx, %r8
	movq	%rax, %rcx
	call	_ZN17AssemblyGenerator23processSimpleAssignmentERKNSt7__cxx1112basic_stringIcSt11char_traitsIcESaIcEEES7_
	movl	$0, %ebx
	jmp	.L627
.L626:
	leaq	32(%rbp), %rax
	addq	$120, %rax
	movl	$0, %edx
	movq	%rax, %rcx
	call	_ZNSt9basic_iosIcSt11char_traitsIcEE5clearESt12_Ios_Iostate
	movq	456(%rbp), %rdx
	leaq	32(%rbp), %rax
	movq	%rax, %rcx
	call	_ZNSt7__cxx1119basic_istringstreamIcSt11char_traitsIcESaIcEE3strERKNS_12basic_stringIcS2_S3_EE
	movq	%rbp, %rdx
	leaq	32(%rbp), %rax
	movq	%rax, %rcx
	call	_ZStrsIcSt11char_traitsIcESaIcEERSt13basic_istreamIT_T0_ES7_RNSt7__cxx1112basic_stringIS4_S5_T1_EE
	movq	%rax, %rcx
	leaq	-32(%rbp), %rax
	movq	%rax, %rdx
	call	_ZStrsIcSt11char_traitsIcESaIcEERSt13basic_istreamIT_T0_ES7_RNSt7__cxx1112basic_stringIS4_S5_T1_EE
	movq	%rax, %rcx
	leaq	-64(%rbp), %rax
	movq	%rax, %rdx
	call	_ZStrsIcSt11char_traitsIcESaIcEERSt13basic_istreamIT_T0_ES7_RNSt7__cxx1112basic_stringIS4_S5_T1_EE
	movq	%rax, %rcx
	leaq	-96(%rbp), %rax
	movq	%rax, %rdx
	call	_ZStrsIcSt11char_traitsIcESaIcEERSt13basic_istreamIT_T0_ES7_RNSt7__cxx1112basic_stringIS4_S5_T1_EE
	movq	%rax, %rcx
	leaq	-64(%rbp), %rax
	movq	%rax, %rdx
	call	_ZStrsIcSt11char_traitsIcESaIcEERSt13basic_istreamIT_T0_ES7_RNSt7__cxx1112basic_stringIS4_S5_T1_EE
	leaq	-96(%rbp), %rdx
	movq	448(%rbp), %rax
	movq	%rax, %rcx
	call	_ZN17AssemblyGenerator20isComparisonOperatorERKNSt7__cxx1112basic_stringIcSt11char_traitsIcESaIcEEE
	testb	%al, %al
	je	.L628
	leaq	-64(%rbp), %r8
	leaq	-96(%rbp), %rcx
	movq	%rbp, %rdx
	movq	448(%rbp), %rax
	movq	%r8, %r9
	movq	%rcx, %r8
	movq	%rax, %rcx
	call	_ZN17AssemblyGenerator17processComparisonERKNSt7__cxx1112basic_stringIcSt11char_traitsIcESaIcEEES7_S7_
	movl	$0, %ebx
	jmp	.L627
.L628:
	movq	448(%rbp), %rax
	addq	$136, %rax
	leaq	.LC89(%rip), %rdx
	movq	%rax, %rcx
	call	_ZStlsISt11char_traitsIcEERSt13basic_ostreamIcT_ES5_PKc
	movq	%rax, %rcx
	movq	456(%rbp), %rax
	movq	%rax, %rdx
	call	_ZStlsIcSt11char_traitsIcESaIcEERSt13basic_ostreamIT_T0_ES7_RKNSt7__cxx1112basic_stringIS4_S5_T1_EE
	movq	%rax, %rcx
	leaq	.LC76(%rip), %rax
	movq	%rax, %rdx
	call	_ZStlsISt11char_traitsIcEERSt13basic_ostreamIcT_ES5_PKc
.LEHE230:
	movl	$1, %ebx
.L627:
	leaq	-96(%rbp), %rax
	movq	%rax, %rcx
	call	_ZNSt7__cxx1112basic_stringIcSt11char_traitsIcESaIcEED1Ev
	cmpl	$1, %ebx
	jne	.L629
	movl	$1, %ebx
	jmp	.L630
.L629:
	movl	$0, %ebx
.L630:
	leaq	-64(%rbp), %rax
	movq	%rax, %rcx
	call	_ZNSt7__cxx1112basic_stringIcSt11char_traitsIcESaIcEED1Ev
	cmpl	$1, %ebx
	jne	.L631
	movl	$1, %ebx
	jmp	.L632
.L631:
	movl	$0, %ebx
.L632:
	leaq	-32(%rbp), %rax
	movq	%rax, %rcx
	call	_ZNSt7__cxx1112basic_stringIcSt11char_traitsIcESaIcEED1Ev
	cmpl	$1, %ebx
	jne	.L633
	movl	$1, %ebx
	jmp	.L634
.L633:
	movl	$0, %ebx
.L634:
	movq	%rbp, %rax
	movq	%rax, %rcx
	call	_ZNSt7__cxx1112basic_stringIcSt11char_traitsIcESaIcEED1Ev
	cmpl	$1, %ebx
	jne	.L635
	movl	$1, %ebx
	jmp	.L636
.L635:
	movl	$0, %ebx
.L636:
	leaq	32(%rbp), %rax
	movq	%rax, %rcx
	call	_ZNSt7__cxx1119basic_istringstreamIcSt11char_traitsIcESaIcEED1Ev
	cmpl	$1, %ebx
	jmp	.L641
.L640:
	movq	%rax, %rbx
	leaq	-96(%rbp), %rax
	movq	%rax, %rcx
	call	_ZNSt7__cxx1112basic_stringIcSt11char_traitsIcESaIcEED1Ev
	leaq	-64(%rbp), %rax
	movq	%rax, %rcx
	call	_ZNSt7__cxx1112basic_stringIcSt11char_traitsIcESaIcEED1Ev
	leaq	-32(%rbp), %rax
	movq	%rax, %rcx
	call	_ZNSt7__cxx1112basic_stringIcSt11char_traitsIcESaIcEED1Ev
	movq	%rbp, %rax
	movq	%rax, %rcx
	call	_ZNSt7__cxx1112basic_stringIcSt11char_traitsIcESaIcEED1Ev
	leaq	32(%rbp), %rax
	movq	%rax, %rcx
	call	_ZNSt7__cxx1119basic_istringstreamIcSt11char_traitsIcESaIcEED1Ev
	movq	%rbx, %rax
	movq	%rax, %rcx
.LEHB231:
	call	_Unwind_Resume
	nop
.LEHE231:
.L641:
	addq	$552, %rsp
	popq	%rbx
	popq	%rbp
	ret
	.seh_handler	__gxx_personality_seh0, @unwind, @except
	.seh_handlerdata
.LLSDA3762:
	.byte	0xff
	.byte	0xff
	.byte	0x1
	.uleb128 .LLSDACSE3762-.LLSDACSB3762
.LLSDACSB3762:
	.uleb128 .LEHB229-.LFB3762
	.uleb128 .LEHE229-.LEHB229
	.uleb128 0
	.uleb128 0
	.uleb128 .LEHB230-.LFB3762
	.uleb128 .LEHE230-.LEHB230
	.uleb128 .L640-.LFB3762
	.uleb128 0
	.uleb128 .LEHB231-.LFB3762
	.uleb128 .LEHE231-.LEHB231
	.uleb128 0
	.uleb128 0
.LLSDACSE3762:
	.section	.text$_ZN17AssemblyGenerator29processAssignmentOrComparisonERKNSt7__cxx1112basic_stringIcSt11char_traitsIcESaIcEEE,"x"
	.linkonce discard
	.seh_endproc
	.section .rdata,"dr"
.LC90:
	.ascii "\11; Assignment\12\0"
.LC91:
	.ascii "\11mov eax, \0"
.LC92:
	.ascii "\11mov [\0"
.LC93:
	.ascii "], eax\12\0"
	.section	.text$_ZN17AssemblyGenerator23processSimpleAssignmentERKNSt7__cxx1112basic_stringIcSt11char_traitsIcESaIcEEES7_,"x"
	.linkonce discard
	.align 2
	.globl	_ZN17AssemblyGenerator23processSimpleAssignmentERKNSt7__cxx1112basic_stringIcSt11char_traitsIcESaIcEEES7_
	.def	_ZN17AssemblyGenerator23processSimpleAssignmentERKNSt7__cxx1112basic_stringIcSt11char_traitsIcESaIcEEES7_;	.scl	2;	.type	32;	.endef
	.seh_proc	_ZN17AssemblyGenerator23processSimpleAssignmentERKNSt7__cxx1112basic_stringIcSt11char_traitsIcESaIcEEES7_
_ZN17AssemblyGenerator23processSimpleAssignmentERKNSt7__cxx1112basic_stringIcSt11char_traitsIcESaIcEEES7_:
.LFB3763:
	pushq	%rbp
	.seh_pushreg	%rbp
	pushq	%rbx
	.seh_pushreg	%rbx
	subq	$56, %rsp
	.seh_stackalloc	56
	leaq	48(%rsp), %rbp
	.seh_setframe	%rbp, 48
	.seh_endprologue
	movq	%rcx, 32(%rbp)
	movq	%rdx, 40(%rbp)
	movq	%r8, 48(%rbp)
	movq	32(%rbp), %rax
	addq	$80, %rax
	movq	%rax, %rcx
	call	_ZNSt13unordered_mapINSt7__cxx1112basic_stringIcSt11char_traitsIcESaIcEEES5_St4hashIS5_ESt8equal_toIS5_ESaISt4pairIKS5_S5_EEE3endEv
	movq	%rax, -16(%rbp)
	movq	32(%rbp), %rax
	leaq	80(%rax), %rcx
	movq	40(%rbp), %rax
	movq	%rax, %rdx
	call	_ZNSt13unordered_mapINSt7__cxx1112basic_stringIcSt11char_traitsIcESaIcEEES5_St4hashIS5_ESt8equal_toIS5_ESaISt4pairIKS5_S5_EEE4findERSB_
	movq	%rax, -8(%rbp)
	leaq	-16(%rbp), %rdx
	leaq	-8(%rbp), %rax
	movq	%rax, %rcx
	call	_ZNSt8__detaileqERKNS_19_Node_iterator_baseISt4pairIKNSt7__cxx1112basic_stringIcSt11char_traitsIcESaIcEEES7_ELb1EEESC_
	testb	%al, %al
	je	.L643
	movq	48(%rbp), %rdx
	movq	32(%rbp), %rax
	movq	%rax, %rcx
	call	_ZN17AssemblyGenerator7isFloatERKNSt7__cxx1112basic_stringIcSt11char_traitsIcESaIcEEE
	testb	%al, %al
	je	.L644
	leaq	.LC1(%rip), %rbx
	jmp	.L645
.L644:
	leaq	.LC0(%rip), %rbx
.L645:
	movq	32(%rbp), %rax
	leaq	80(%rax), %rcx
	movq	40(%rbp), %rax
	movq	%rax, %rdx
	call	_ZNSt13unordered_mapINSt7__cxx1112basic_stringIcSt11char_traitsIcESaIcEEES5_St4hashIS5_ESt8equal_toIS5_ESaISt4pairIKS5_S5_EEEixERSB_
	movq	%rbx, %rdx
	movq	%rax, %rcx
	call	_ZNSt7__cxx1112basic_stringIcSt11char_traitsIcESaIcEEaSEPKc
.L643:
	movq	32(%rbp), %rax
	addq	$136, %rax
	leaq	.LC90(%rip), %rdx
	movq	%rax, %rcx
	call	_ZStlsISt11char_traitsIcEERSt13basic_ostreamIcT_ES5_PKc
	movq	32(%rbp), %rax
	addq	$136, %rax
	leaq	.LC91(%rip), %rdx
	movq	%rax, %rcx
	call	_ZStlsISt11char_traitsIcEERSt13basic_ostreamIcT_ES5_PKc
	movq	%rax, %rcx
	movq	48(%rbp), %rax
	movq	%rax, %rdx
	call	_ZStlsIcSt11char_traitsIcESaIcEERSt13basic_ostreamIT_T0_ES7_RKNSt7__cxx1112basic_stringIS4_S5_T1_EE
	movq	%rax, %rcx
	leaq	.LC76(%rip), %rax
	movq	%rax, %rdx
	call	_ZStlsISt11char_traitsIcEERSt13basic_ostreamIcT_ES5_PKc
	movq	32(%rbp), %rax
	addq	$136, %rax
	leaq	.LC92(%rip), %rdx
	movq	%rax, %rcx
	call	_ZStlsISt11char_traitsIcEERSt13basic_ostreamIcT_ES5_PKc
	movq	%rax, %rcx
	movq	40(%rbp), %rax
	movq	%rax, %rdx
	call	_ZStlsIcSt11char_traitsIcESaIcEERSt13basic_ostreamIT_T0_ES7_RKNSt7__cxx1112basic_stringIS4_S5_T1_EE
	movq	%rax, %rcx
	leaq	.LC93(%rip), %rax
	movq	%rax, %rdx
	call	_ZStlsISt11char_traitsIcEERSt13basic_ostreamIcT_ES5_PKc
	nop
	addq	$56, %rsp
	popq	%rbx
	popq	%rbp
	ret
	.seh_endproc
	.section .rdata,"dr"
.LC94:
	.ascii "\11; Comparison\12\0"
.LC95:
	.ascii "\11mov eax, [\0"
.LC96:
	.ascii "]\12\0"
.LC97:
	.ascii "\11cmp eax, \0"
.LC98:
	.ascii "sete\0"
.LC99:
	.ascii "setne\0"
.LC100:
	.ascii "setl\0"
.LC101:
	.ascii "setg\0"
.LC102:
	.ascii "setle\0"
.LC103:
	.ascii "setge\0"
.LC104:
	.ascii " al\12\0"
.LC105:
	.ascii "\11movzx eax, al\12\0"
	.section	.text$_ZN17AssemblyGenerator17processComparisonERKNSt7__cxx1112basic_stringIcSt11char_traitsIcESaIcEEES7_S7_,"x"
	.linkonce discard
	.align 2
	.globl	_ZN17AssemblyGenerator17processComparisonERKNSt7__cxx1112basic_stringIcSt11char_traitsIcESaIcEEES7_S7_
	.def	_ZN17AssemblyGenerator17processComparisonERKNSt7__cxx1112basic_stringIcSt11char_traitsIcESaIcEEES7_S7_;	.scl	2;	.type	32;	.endef
	.seh_proc	_ZN17AssemblyGenerator17processComparisonERKNSt7__cxx1112basic_stringIcSt11char_traitsIcESaIcEEES7_S7_
_ZN17AssemblyGenerator17processComparisonERKNSt7__cxx1112basic_stringIcSt11char_traitsIcESaIcEEES7_S7_:
.LFB3764:
	pushq	%rbp
	.seh_pushreg	%rbp
	pushq	%rbx
	.seh_pushreg	%rbx
	subq	$72, %rsp
	.seh_stackalloc	72
	leaq	64(%rsp), %rbp
	.seh_setframe	%rbp, 64
	.seh_endprologue
	movq	%rcx, 32(%rbp)
	movq	%rdx, 40(%rbp)
	movq	%r8, 48(%rbp)
	movq	%r9, 56(%rbp)
	movq	32(%rbp), %rax
	leaq	80(%rax), %rcx
	movq	40(%rbp), %rax
	movq	%rax, %rdx
.LEHB232:
	call	_ZNSt13unordered_mapINSt7__cxx1112basic_stringIcSt11char_traitsIcESaIcEEES5_St4hashIS5_ESt8equal_toIS5_ESaISt4pairIKS5_S5_EEEixERSB_
	movq	%rax, %rcx
	leaq	.LC0(%rip), %rax
	movq	%rax, %rdx
	call	_ZNSt7__cxx1112basic_stringIcSt11char_traitsIcESaIcEEaSEPKc
	movq	32(%rbp), %rax
	addq	$136, %rax
	leaq	.LC94(%rip), %rdx
	movq	%rax, %rcx
	call	_ZStlsISt11char_traitsIcEERSt13basic_ostreamIcT_ES5_PKc
	movq	32(%rbp), %rax
	addq	$136, %rax
	leaq	.LC95(%rip), %rdx
	movq	%rax, %rcx
	call	_ZStlsISt11char_traitsIcEERSt13basic_ostreamIcT_ES5_PKc
	movq	%rax, %rcx
	movq	40(%rbp), %rax
	movq	%rax, %rdx
	call	_ZStlsIcSt11char_traitsIcESaIcEERSt13basic_ostreamIT_T0_ES7_RKNSt7__cxx1112basic_stringIS4_S5_T1_EE
	movq	%rax, %rcx
	leaq	.LC96(%rip), %rax
	movq	%rax, %rdx
	call	_ZStlsISt11char_traitsIcEERSt13basic_ostreamIcT_ES5_PKc
	movq	32(%rbp), %rax
	addq	$136, %rax
	leaq	.LC97(%rip), %rdx
	movq	%rax, %rcx
	call	_ZStlsISt11char_traitsIcEERSt13basic_ostreamIcT_ES5_PKc
	movq	%rax, %rcx
	movq	56(%rbp), %rax
	movq	%rax, %rdx
	call	_ZStlsIcSt11char_traitsIcESaIcEERSt13basic_ostreamIT_T0_ES7_RKNSt7__cxx1112basic_stringIS4_S5_T1_EE
	movq	%rax, %rcx
	leaq	.LC76(%rip), %rax
	movq	%rax, %rdx
	call	_ZStlsISt11char_traitsIcEERSt13basic_ostreamIcT_ES5_PKc
.LEHE232:
	leaq	-32(%rbp), %rax
	movq	%rax, %rcx
	call	_ZNSt7__cxx1112basic_stringIcSt11char_traitsIcESaIcEEC1Ev
	movq	48(%rbp), %rax
	leaq	.LC19(%rip), %rdx
	movq	%rax, %rcx
.LEHB233:
	call	_ZSteqIcSt11char_traitsIcESaIcEEbRKNSt7__cxx1112basic_stringIT_T0_T1_EEPKS5_
	testb	%al, %al
	je	.L647
	leaq	-32(%rbp), %rax
	leaq	.LC98(%rip), %rdx
	movq	%rax, %rcx
	call	_ZNSt7__cxx1112basic_stringIcSt11char_traitsIcESaIcEEaSEPKc
	jmp	.L648
.L647:
	movq	48(%rbp), %rax
	leaq	.LC21(%rip), %rdx
	movq	%rax, %rcx
	call	_ZSteqIcSt11char_traitsIcESaIcEEbRKNSt7__cxx1112basic_stringIT_T0_T1_EEPKS5_
	testb	%al, %al
	je	.L649
	leaq	-32(%rbp), %rax
	leaq	.LC99(%rip), %rdx
	movq	%rax, %rcx
	call	_ZNSt7__cxx1112basic_stringIcSt11char_traitsIcESaIcEEaSEPKc
	jmp	.L648
.L649:
	movq	48(%rbp), %rax
	leaq	.LC29(%rip), %rdx
	movq	%rax, %rcx
	call	_ZSteqIcSt11char_traitsIcESaIcEEbRKNSt7__cxx1112basic_stringIT_T0_T1_EEPKS5_
	testb	%al, %al
	je	.L650
	leaq	-32(%rbp), %rax
	leaq	.LC100(%rip), %rdx
	movq	%rax, %rcx
	call	_ZNSt7__cxx1112basic_stringIcSt11char_traitsIcESaIcEEaSEPKc
	jmp	.L648
.L650:
	movq	48(%rbp), %rax
	leaq	.LC27(%rip), %rdx
	movq	%rax, %rcx
	call	_ZSteqIcSt11char_traitsIcESaIcEEbRKNSt7__cxx1112basic_stringIT_T0_T1_EEPKS5_
	testb	%al, %al
	je	.L651
	leaq	-32(%rbp), %rax
	leaq	.LC101(%rip), %rdx
	movq	%rax, %rcx
	call	_ZNSt7__cxx1112basic_stringIcSt11char_traitsIcESaIcEEaSEPKc
	jmp	.L648
.L651:
	movq	48(%rbp), %rax
	leaq	.LC28(%rip), %rdx
	movq	%rax, %rcx
	call	_ZSteqIcSt11char_traitsIcESaIcEEbRKNSt7__cxx1112basic_stringIT_T0_T1_EEPKS5_
	testb	%al, %al
	je	.L652
	leaq	-32(%rbp), %rax
	leaq	.LC102(%rip), %rdx
	movq	%rax, %rcx
	call	_ZNSt7__cxx1112basic_stringIcSt11char_traitsIcESaIcEEaSEPKc
	jmp	.L648
.L652:
	movq	48(%rbp), %rax
	leaq	.LC26(%rip), %rdx
	movq	%rax, %rcx
	call	_ZSteqIcSt11char_traitsIcESaIcEEbRKNSt7__cxx1112basic_stringIT_T0_T1_EEPKS5_
	testb	%al, %al
	je	.L648
	leaq	-32(%rbp), %rax
	leaq	.LC103(%rip), %rdx
	movq	%rax, %rcx
	call	_ZNSt7__cxx1112basic_stringIcSt11char_traitsIcESaIcEEaSEPKc
.L648:
	movq	32(%rbp), %rax
	addq	$136, %rax
	leaq	.LC73(%rip), %rdx
	movq	%rax, %rcx
	call	_ZStlsISt11char_traitsIcEERSt13basic_ostreamIcT_ES5_PKc
	movq	%rax, %rcx
	leaq	-32(%rbp), %rax
	movq	%rax, %rdx
	call	_ZStlsIcSt11char_traitsIcESaIcEERSt13basic_ostreamIT_T0_ES7_RKNSt7__cxx1112basic_stringIS4_S5_T1_EE
	movq	%rax, %rcx
	leaq	.LC104(%rip), %rax
	movq	%rax, %rdx
	call	_ZStlsISt11char_traitsIcEERSt13basic_ostreamIcT_ES5_PKc
	movq	32(%rbp), %rax
	addq	$136, %rax
	leaq	.LC105(%rip), %rdx
	movq	%rax, %rcx
	call	_ZStlsISt11char_traitsIcEERSt13basic_ostreamIcT_ES5_PKc
	movq	32(%rbp), %rax
	addq	$136, %rax
	leaq	.LC92(%rip), %rdx
	movq	%rax, %rcx
	call	_ZStlsISt11char_traitsIcEERSt13basic_ostreamIcT_ES5_PKc
	movq	%rax, %rcx
	movq	40(%rbp), %rax
	movq	%rax, %rdx
	call	_ZStlsIcSt11char_traitsIcESaIcEERSt13basic_ostreamIT_T0_ES7_RKNSt7__cxx1112basic_stringIS4_S5_T1_EE
	movq	%rax, %rcx
	leaq	.LC93(%rip), %rax
	movq	%rax, %rdx
	call	_ZStlsISt11char_traitsIcEERSt13basic_ostreamIcT_ES5_PKc
.LEHE233:
	leaq	-32(%rbp), %rax
	movq	%rax, %rcx
	call	_ZNSt7__cxx1112basic_stringIcSt11char_traitsIcESaIcEED1Ev
	jmp	.L655
.L654:
	movq	%rax, %rbx
	leaq	-32(%rbp), %rax
	movq	%rax, %rcx
	call	_ZNSt7__cxx1112basic_stringIcSt11char_traitsIcESaIcEED1Ev
	movq	%rbx, %rax
	movq	%rax, %rcx
.LEHB234:
	call	_Unwind_Resume
	nop
.LEHE234:
.L655:
	addq	$72, %rsp
	popq	%rbx
	popq	%rbp
	ret
	.seh_handler	__gxx_personality_seh0, @unwind, @except
	.seh_handlerdata
.LLSDA3764:
	.byte	0xff
	.byte	0xff
	.byte	0x1
	.uleb128 .LLSDACSE3764-.LLSDACSB3764
.LLSDACSB3764:
	.uleb128 .LEHB232-.LFB3764
	.uleb128 .LEHE232-.LEHB232
	.uleb128 0
	.uleb128 0
	.uleb128 .LEHB233-.LFB3764
	.uleb128 .LEHE233-.LEHB233
	.uleb128 .L654-.LFB3764
	.uleb128 0
	.uleb128 .LEHB234-.LFB3764
	.uleb128 .LEHE234-.LEHB234
	.uleb128 0
	.uleb128 0
.LLSDACSE3764:
	.section	.text$_ZN17AssemblyGenerator17processComparisonERKNSt7__cxx1112basic_stringIcSt11char_traitsIcESaIcEEES7_S7_,"x"
	.linkonce discard
	.seh_endproc
	.section .rdata,"dr"
.LC106:
	.ascii "\11; Conditional jump\12\0"
.LC107:
	.ascii "\11test eax, eax\12\0"
.LC108:
	.ascii "\11jz \0"
	.section	.text$_ZN17AssemblyGenerator22processConditionalJumpERKNSt7__cxx1112basic_stringIcSt11char_traitsIcESaIcEEE,"x"
	.linkonce discard
	.align 2
	.globl	_ZN17AssemblyGenerator22processConditionalJumpERKNSt7__cxx1112basic_stringIcSt11char_traitsIcESaIcEEE
	.def	_ZN17AssemblyGenerator22processConditionalJumpERKNSt7__cxx1112basic_stringIcSt11char_traitsIcESaIcEEE;	.scl	2;	.type	32;	.endef
	.seh_proc	_ZN17AssemblyGenerator22processConditionalJumpERKNSt7__cxx1112basic_stringIcSt11char_traitsIcESaIcEEE
_ZN17AssemblyGenerator22processConditionalJumpERKNSt7__cxx1112basic_stringIcSt11char_traitsIcESaIcEEE:
.LFB3765:
	pushq	%rbp
	.seh_pushreg	%rbp
	pushq	%rbx
	.seh_pushreg	%rbx
	subq	$552, %rsp
	.seh_stackalloc	552
	leaq	128(%rsp), %rbp
	.seh_setframe	%rbp, 128
	.seh_endprologue
	movq	%rcx, 448(%rbp)
	movq	%rdx, 456(%rbp)
	movq	456(%rbp), %rdx
	leaq	32(%rbp), %rax
	movl	$8, %r8d
	movq	%rax, %rcx
.LEHB235:
	call	_ZNSt7__cxx1119basic_istringstreamIcSt11char_traitsIcESaIcEEC1ERKNS_12basic_stringIcS2_S3_EESt13_Ios_Openmode
.LEHE235:
	movq	%rbp, %rax
	movq	%rax, %rcx
	call	_ZNSt7__cxx1112basic_stringIcSt11char_traitsIcESaIcEEC1Ev
	leaq	-32(%rbp), %rax
	movq	%rax, %rcx
	call	_ZNSt7__cxx1112basic_stringIcSt11char_traitsIcESaIcEEC1Ev
	leaq	-64(%rbp), %rax
	movq	%rax, %rcx
	call	_ZNSt7__cxx1112basic_stringIcSt11char_traitsIcESaIcEEC1Ev
	leaq	-96(%rbp), %rax
	movq	%rax, %rcx
	call	_ZNSt7__cxx1112basic_stringIcSt11char_traitsIcESaIcEEC1Ev
	movq	%rbp, %rdx
	leaq	32(%rbp), %rax
	movq	%rax, %rcx
.LEHB236:
	call	_ZStrsIcSt11char_traitsIcESaIcEERSt13basic_istreamIT_T0_ES7_RNSt7__cxx1112basic_stringIS4_S5_T1_EE
	movq	%rax, %rcx
	leaq	-32(%rbp), %rax
	movq	%rax, %rdx
	call	_ZStrsIcSt11char_traitsIcESaIcEERSt13basic_istreamIT_T0_ES7_RNSt7__cxx1112basic_stringIS4_S5_T1_EE
	movq	%rax, %rcx
	leaq	-64(%rbp), %rax
	movq	%rax, %rdx
	call	_ZStrsIcSt11char_traitsIcESaIcEERSt13basic_istreamIT_T0_ES7_RNSt7__cxx1112basic_stringIS4_S5_T1_EE
	movq	%rax, %rcx
	leaq	-96(%rbp), %rax
	movq	%rax, %rdx
	call	_ZStrsIcSt11char_traitsIcESaIcEERSt13basic_istreamIT_T0_ES7_RNSt7__cxx1112basic_stringIS4_S5_T1_EE
	movq	448(%rbp), %rax
	addq	$136, %rax
	leaq	.LC106(%rip), %rdx
	movq	%rax, %rcx
	call	_ZStlsISt11char_traitsIcEERSt13basic_ostreamIcT_ES5_PKc
	movq	448(%rbp), %rax
	addq	$136, %rax
	leaq	.LC95(%rip), %rdx
	movq	%rax, %rcx
	call	_ZStlsISt11char_traitsIcEERSt13basic_ostreamIcT_ES5_PKc
	movq	%rax, %rcx
	leaq	-32(%rbp), %rax
	movq	%rax, %rdx
	call	_ZStlsIcSt11char_traitsIcESaIcEERSt13basic_ostreamIT_T0_ES7_RKNSt7__cxx1112basic_stringIS4_S5_T1_EE
	movq	%rax, %rcx
	leaq	.LC96(%rip), %rax
	movq	%rax, %rdx
	call	_ZStlsISt11char_traitsIcEERSt13basic_ostreamIcT_ES5_PKc
	movq	448(%rbp), %rax
	addq	$136, %rax
	leaq	.LC107(%rip), %rdx
	movq	%rax, %rcx
	call	_ZStlsISt11char_traitsIcEERSt13basic_ostreamIcT_ES5_PKc
	movq	448(%rbp), %rax
	addq	$136, %rax
	leaq	.LC108(%rip), %rdx
	movq	%rax, %rcx
	call	_ZStlsISt11char_traitsIcEERSt13basic_ostreamIcT_ES5_PKc
	movq	%rax, %rcx
	leaq	-96(%rbp), %rax
	movq	%rax, %rdx
	call	_ZStlsIcSt11char_traitsIcESaIcEERSt13basic_ostreamIT_T0_ES7_RKNSt7__cxx1112basic_stringIS4_S5_T1_EE
	movq	%rax, %rcx
	leaq	.LC76(%rip), %rax
	movq	%rax, %rdx
	call	_ZStlsISt11char_traitsIcEERSt13basic_ostreamIcT_ES5_PKc
.LEHE236:
	leaq	-96(%rbp), %rax
	movq	%rax, %rcx
	call	_ZNSt7__cxx1112basic_stringIcSt11char_traitsIcESaIcEED1Ev
	leaq	-64(%rbp), %rax
	movq	%rax, %rcx
	call	_ZNSt7__cxx1112basic_stringIcSt11char_traitsIcESaIcEED1Ev
	leaq	-32(%rbp), %rax
	movq	%rax, %rcx
	call	_ZNSt7__cxx1112basic_stringIcSt11char_traitsIcESaIcEED1Ev
	movq	%rbp, %rax
	movq	%rax, %rcx
	call	_ZNSt7__cxx1112basic_stringIcSt11char_traitsIcESaIcEED1Ev
	leaq	32(%rbp), %rax
	movq	%rax, %rcx
	call	_ZNSt7__cxx1119basic_istringstreamIcSt11char_traitsIcESaIcEED1Ev
	jmp	.L659
.L658:
	movq	%rax, %rbx
	leaq	-96(%rbp), %rax
	movq	%rax, %rcx
	call	_ZNSt7__cxx1112basic_stringIcSt11char_traitsIcESaIcEED1Ev
	leaq	-64(%rbp), %rax
	movq	%rax, %rcx
	call	_ZNSt7__cxx1112basic_stringIcSt11char_traitsIcESaIcEED1Ev
	leaq	-32(%rbp), %rax
	movq	%rax, %rcx
	call	_ZNSt7__cxx1112basic_stringIcSt11char_traitsIcESaIcEED1Ev
	movq	%rbp, %rax
	movq	%rax, %rcx
	call	_ZNSt7__cxx1112basic_stringIcSt11char_traitsIcESaIcEED1Ev
	leaq	32(%rbp), %rax
	movq	%rax, %rcx
	call	_ZNSt7__cxx1119basic_istringstreamIcSt11char_traitsIcESaIcEED1Ev
	movq	%rbx, %rax
	movq	%rax, %rcx
.LEHB237:
	call	_Unwind_Resume
	nop
.LEHE237:
.L659:
	addq	$552, %rsp
	popq	%rbx
	popq	%rbp
	ret
	.seh_handler	__gxx_personality_seh0, @unwind, @except
	.seh_handlerdata
.LLSDA3765:
	.byte	0xff
	.byte	0xff
	.byte	0x1
	.uleb128 .LLSDACSE3765-.LLSDACSB3765
.LLSDACSB3765:
	.uleb128 .LEHB235-.LFB3765
	.uleb128 .LEHE235-.LEHB235
	.uleb128 0
	.uleb128 0
	.uleb128 .LEHB236-.LFB3765
	.uleb128 .LEHE236-.LEHB236
	.uleb128 .L658-.LFB3765
	.uleb128 0
	.uleb128 .LEHB237-.LFB3765
	.uleb128 .LEHE237-.LEHB237
	.uleb128 0
	.uleb128 0
.LLSDACSE3765:
	.section	.text$_ZN17AssemblyGenerator22processConditionalJumpERKNSt7__cxx1112basic_stringIcSt11char_traitsIcESaIcEEE,"x"
	.linkonce discard
	.seh_endproc
	.section	.text$_ZN17AssemblyGenerator20isComparisonOperatorERKNSt7__cxx1112basic_stringIcSt11char_traitsIcESaIcEEE,"x"
	.linkonce discard
	.align 2
	.globl	_ZN17AssemblyGenerator20isComparisonOperatorERKNSt7__cxx1112basic_stringIcSt11char_traitsIcESaIcEEE
	.def	_ZN17AssemblyGenerator20isComparisonOperatorERKNSt7__cxx1112basic_stringIcSt11char_traitsIcESaIcEEE;	.scl	2;	.type	32;	.endef
	.seh_proc	_ZN17AssemblyGenerator20isComparisonOperatorERKNSt7__cxx1112basic_stringIcSt11char_traitsIcESaIcEEE
_ZN17AssemblyGenerator20isComparisonOperatorERKNSt7__cxx1112basic_stringIcSt11char_traitsIcESaIcEEE:
.LFB3766:
	pushq	%rbp
	.seh_pushreg	%rbp
	movq	%rsp, %rbp
	.seh_setframe	%rbp, 0
	subq	$32, %rsp
	.seh_stackalloc	32
	.seh_endprologue
	movq	%rcx, 16(%rbp)
	movq	%rdx, 24(%rbp)
	movq	24(%rbp), %rax
	leaq	.LC19(%rip), %rdx
	movq	%rax, %rcx
	call	_ZSteqIcSt11char_traitsIcESaIcEEbRKNSt7__cxx1112basic_stringIT_T0_T1_EEPKS5_
	testb	%al, %al
	jne	.L661
	movq	24(%rbp), %rax
	leaq	.LC21(%rip), %rdx
	movq	%rax, %rcx
	call	_ZSteqIcSt11char_traitsIcESaIcEEbRKNSt7__cxx1112basic_stringIT_T0_T1_EEPKS5_
	testb	%al, %al
	jne	.L661
	movq	24(%rbp), %rax
	leaq	.LC29(%rip), %rdx
	movq	%rax, %rcx
	call	_ZSteqIcSt11char_traitsIcESaIcEEbRKNSt7__cxx1112basic_stringIT_T0_T1_EEPKS5_
	testb	%al, %al
	jne	.L661
	movq	24(%rbp), %rax
	leaq	.LC27(%rip), %rdx
	movq	%rax, %rcx
	call	_ZSteqIcSt11char_traitsIcESaIcEEbRKNSt7__cxx1112basic_stringIT_T0_T1_EEPKS5_
	testb	%al, %al
	jne	.L661
	movq	24(%rbp), %rax
	leaq	.LC28(%rip), %rdx
	movq	%rax, %rcx
	call	_ZSteqIcSt11char_traitsIcESaIcEEbRKNSt7__cxx1112basic_stringIT_T0_T1_EEPKS5_
	testb	%al, %al
	jne	.L661
	movq	24(%rbp), %rax
	leaq	.LC26(%rip), %rdx
	movq	%rax, %rcx
	call	_ZSteqIcSt11char_traitsIcESaIcEEbRKNSt7__cxx1112basic_stringIT_T0_T1_EEPKS5_
	testb	%al, %al
	je	.L662
.L661:
	movl	$1, %eax
	jmp	.L663
.L662:
	movl	$0, %eax
.L663:
	addq	$32, %rsp
	popq	%rbp
	ret
	.seh_endproc
	.section	.text$_ZN17AssemblyGenerator7isFloatERKNSt7__cxx1112basic_stringIcSt11char_traitsIcESaIcEEE,"x"
	.linkonce discard
	.align 2
	.globl	_ZN17AssemblyGenerator7isFloatERKNSt7__cxx1112basic_stringIcSt11char_traitsIcESaIcEEE
	.def	_ZN17AssemblyGenerator7isFloatERKNSt7__cxx1112basic_stringIcSt11char_traitsIcESaIcEEE;	.scl	2;	.type	32;	.endef
	.seh_proc	_ZN17AssemblyGenerator7isFloatERKNSt7__cxx1112basic_stringIcSt11char_traitsIcESaIcEEE
_ZN17AssemblyGenerator7isFloatERKNSt7__cxx1112basic_stringIcSt11char_traitsIcESaIcEEE:
.LFB3767:
	pushq	%rbp
	.seh_pushreg	%rbp
	movq	%rsp, %rbp
	.seh_setframe	%rbp, 0
	subq	$32, %rsp
	.seh_stackalloc	32
	.seh_endprologue
	movq	%rcx, 16(%rbp)
	movq	%rdx, 24(%rbp)
	movq	24(%rbp), %rax
	movl	$0, %r8d
	movl	$46, %edx
	movq	%rax, %rcx
	call	_ZNKSt7__cxx1112basic_stringIcSt11char_traitsIcESaIcEE4findEcy
	cmpq	$-1, %rax
	setne	%al
	addq	$32, %rsp
	popq	%rbp
	ret
	.seh_endproc
	.section	.text$_ZN5LexerD1Ev,"x"
	.linkonce discard
	.align 2
	.globl	_ZN5LexerD1Ev
	.def	_ZN5LexerD1Ev;	.scl	2;	.type	32;	.endef
	.seh_proc	_ZN5LexerD1Ev
_ZN5LexerD1Ev:
.LFB3773:
	pushq	%rbp
	.seh_pushreg	%rbp
	movq	%rsp, %rbp
	.seh_setframe	%rbp, 0
	subq	$32, %rsp
	.seh_stackalloc	32
	.seh_endprologue
	movq	%rcx, 16(%rbp)
	movq	16(%rbp), %rax
	movq	%rax, %rcx
	call	_ZNSt7__cxx1112basic_stringIcSt11char_traitsIcESaIcEED1Ev
	nop
	addq	$32, %rsp
	popq	%rbp
	ret
	.seh_endproc
	.section	.text$_ZNSt8_Rb_treeINSt7__cxx1112basic_stringIcSt11char_traitsIcESaIcEEESt4pairIKS5_S5_ESt10_Select1stIS8_ESt4lessIS5_ESaIS8_EE13_Rb_tree_implISC_Lb1EED1Ev,"x"
	.linkonce discard
	.align 2
	.globl	_ZNSt8_Rb_treeINSt7__cxx1112basic_stringIcSt11char_traitsIcESaIcEEESt4pairIKS5_S5_ESt10_Select1stIS8_ESt4lessIS5_ESaIS8_EE13_Rb_tree_implISC_Lb1EED1Ev
	.def	_ZNSt8_Rb_treeINSt7__cxx1112basic_stringIcSt11char_traitsIcESaIcEEESt4pairIKS5_S5_ESt10_Select1stIS8_ESt4lessIS5_ESaIS8_EE13_Rb_tree_implISC_Lb1EED1Ev;	.scl	2;	.type	32;	.endef
	.seh_proc	_ZNSt8_Rb_treeINSt7__cxx1112basic_stringIcSt11char_traitsIcESaIcEEESt4pairIKS5_S5_ESt10_Select1stIS8_ESt4lessIS5_ESaIS8_EE13_Rb_tree_implISC_Lb1EED1Ev
_ZNSt8_Rb_treeINSt7__cxx1112basic_stringIcSt11char_traitsIcESaIcEEESt4pairIKS5_S5_ESt10_Select1stIS8_ESt4lessIS5_ESaIS8_EE13_Rb_tree_implISC_Lb1EED1Ev:
.LFB3782:
	pushq	%rbp
	.seh_pushreg	%rbp
	movq	%rsp, %rbp
	.seh_setframe	%rbp, 0
	subq	$48, %rsp
	.seh_stackalloc	48
	.seh_endprologue
	movq	%rcx, 16(%rbp)
	movq	16(%rbp), %rax
	movq	%rax, -8(%rbp)
	movq	-8(%rbp), %rax
	movq	%rax, %rcx
	call	_ZNSt15__new_allocatorISt13_Rb_tree_nodeISt4pairIKNSt7__cxx1112basic_stringIcSt11char_traitsIcESaIcEEES7_EEED2Ev
	nop
	nop
	addq	$48, %rsp
	popq	%rbp
	ret
	.seh_endproc
	.section	.text$_ZNSt8_Rb_treeINSt7__cxx1112basic_stringIcSt11char_traitsIcESaIcEEESt4pairIKS5_S5_ESt10_Select1stIS8_ESt4lessIS5_ESaIS8_EEC1Ev,"x"
	.linkonce discard
	.align 2
	.globl	_ZNSt8_Rb_treeINSt7__cxx1112basic_stringIcSt11char_traitsIcESaIcEEESt4pairIKS5_S5_ESt10_Select1stIS8_ESt4lessIS5_ESaIS8_EEC1Ev
	.def	_ZNSt8_Rb_treeINSt7__cxx1112basic_stringIcSt11char_traitsIcESaIcEEESt4pairIKS5_S5_ESt10_Select1stIS8_ESt4lessIS5_ESaIS8_EEC1Ev;	.scl	2;	.type	32;	.endef
	.seh_proc	_ZNSt8_Rb_treeINSt7__cxx1112basic_stringIcSt11char_traitsIcESaIcEEESt4pairIKS5_S5_ESt10_Select1stIS8_ESt4lessIS5_ESaIS8_EEC1Ev
_ZNSt8_Rb_treeINSt7__cxx1112basic_stringIcSt11char_traitsIcESaIcEEESt4pairIKS5_S5_ESt10_Select1stIS8_ESt4lessIS5_ESaIS8_EEC1Ev:
.LFB3784:
	pushq	%rbp
	.seh_pushreg	%rbp
	movq	%rsp, %rbp
	.seh_setframe	%rbp, 0
	subq	$32, %rsp
	.seh_stackalloc	32
	.seh_endprologue
	movq	%rcx, 16(%rbp)
	movq	16(%rbp), %rax
	movq	%rax, %rcx
	call	_ZNSt8_Rb_treeINSt7__cxx1112basic_stringIcSt11char_traitsIcESaIcEEESt4pairIKS5_S5_ESt10_Select1stIS8_ESt4lessIS5_ESaIS8_EE13_Rb_tree_implISC_Lb1EEC1Ev
	nop
	addq	$32, %rsp
	popq	%rbp
	ret
	.seh_endproc
	.section	.text$_ZNSt3mapINSt7__cxx1112basic_stringIcSt11char_traitsIcESaIcEEES5_St4lessIS5_ESaISt4pairIKS5_S5_EEEC1Ev,"x"
	.linkonce discard
	.align 2
	.globl	_ZNSt3mapINSt7__cxx1112basic_stringIcSt11char_traitsIcESaIcEEES5_St4lessIS5_ESaISt4pairIKS5_S5_EEEC1Ev
	.def	_ZNSt3mapINSt7__cxx1112basic_stringIcSt11char_traitsIcESaIcEEES5_St4lessIS5_ESaISt4pairIKS5_S5_EEEC1Ev;	.scl	2;	.type	32;	.endef
	.seh_proc	_ZNSt3mapINSt7__cxx1112basic_stringIcSt11char_traitsIcESaIcEEES5_St4lessIS5_ESaISt4pairIKS5_S5_EEEC1Ev
_ZNSt3mapINSt7__cxx1112basic_stringIcSt11char_traitsIcESaIcEEES5_St4lessIS5_ESaISt4pairIKS5_S5_EEEC1Ev:
.LFB3786:
	pushq	%rbp
	.seh_pushreg	%rbp
	movq	%rsp, %rbp
	.seh_setframe	%rbp, 0
	subq	$32, %rsp
	.seh_stackalloc	32
	.seh_endprologue
	movq	%rcx, 16(%rbp)
	movq	16(%rbp), %rax
	movq	%rax, %rcx
	call	_ZNSt8_Rb_treeINSt7__cxx1112basic_stringIcSt11char_traitsIcESaIcEEESt4pairIKS5_S5_ESt10_Select1stIS8_ESt4lessIS5_ESaIS8_EEC1Ev
	nop
	addq	$32, %rsp
	popq	%rbp
	ret
	.seh_endproc
	.section	.text$_ZNSt3mapINSt7__cxx1112basic_stringIcSt11char_traitsIcESaIcEEES5_St4lessIS5_ESaISt4pairIKS5_S5_EEED1Ev,"x"
	.linkonce discard
	.align 2
	.globl	_ZNSt3mapINSt7__cxx1112basic_stringIcSt11char_traitsIcESaIcEEES5_St4lessIS5_ESaISt4pairIKS5_S5_EEED1Ev
	.def	_ZNSt3mapINSt7__cxx1112basic_stringIcSt11char_traitsIcESaIcEEES5_St4lessIS5_ESaISt4pairIKS5_S5_EEED1Ev;	.scl	2;	.type	32;	.endef
	.seh_proc	_ZNSt3mapINSt7__cxx1112basic_stringIcSt11char_traitsIcESaIcEEES5_St4lessIS5_ESaISt4pairIKS5_S5_EEED1Ev
_ZNSt3mapINSt7__cxx1112basic_stringIcSt11char_traitsIcESaIcEEES5_St4lessIS5_ESaISt4pairIKS5_S5_EEED1Ev:
.LFB3789:
	pushq	%rbp
	.seh_pushreg	%rbp
	movq	%rsp, %rbp
	.seh_setframe	%rbp, 0
	subq	$32, %rsp
	.seh_stackalloc	32
	.seh_endprologue
	movq	%rcx, 16(%rbp)
	movq	16(%rbp), %rax
	movq	%rax, %rcx
	call	_ZNSt8_Rb_treeINSt7__cxx1112basic_stringIcSt11char_traitsIcESaIcEEESt4pairIKS5_S5_ESt10_Select1stIS8_ESt4lessIS5_ESaIS8_EED1Ev
	nop
	addq	$32, %rsp
	popq	%rbp
	ret
	.seh_endproc
	.section	.text$_ZN11SymbolTableC1Ev,"x"
	.linkonce discard
	.align 2
	.globl	_ZN11SymbolTableC1Ev
	.def	_ZN11SymbolTableC1Ev;	.scl	2;	.type	32;	.endef
	.seh_proc	_ZN11SymbolTableC1Ev
_ZN11SymbolTableC1Ev:
.LFB3791:
	pushq	%rbp
	.seh_pushreg	%rbp
	movq	%rsp, %rbp
	.seh_setframe	%rbp, 0
	subq	$32, %rsp
	.seh_stackalloc	32
	.seh_endprologue
	movq	%rcx, 16(%rbp)
	movq	16(%rbp), %rax
	movq	%rax, %rcx
	call	_ZNSt3mapINSt7__cxx1112basic_stringIcSt11char_traitsIcESaIcEEES5_St4lessIS5_ESaISt4pairIKS5_S5_EEEC1Ev
	nop
	addq	$32, %rsp
	popq	%rbp
	ret
	.seh_endproc
	.section	.text$_ZN11SymbolTableD1Ev,"x"
	.linkonce discard
	.align 2
	.globl	_ZN11SymbolTableD1Ev
	.def	_ZN11SymbolTableD1Ev;	.scl	2;	.type	32;	.endef
	.seh_proc	_ZN11SymbolTableD1Ev
_ZN11SymbolTableD1Ev:
.LFB3794:
	pushq	%rbp
	.seh_pushreg	%rbp
	movq	%rsp, %rbp
	.seh_setframe	%rbp, 0
	subq	$32, %rsp
	.seh_stackalloc	32
	.seh_endprologue
	movq	%rcx, 16(%rbp)
	movq	16(%rbp), %rax
	movq	%rax, %rcx
	call	_ZNSt3mapINSt7__cxx1112basic_stringIcSt11char_traitsIcESaIcEEES5_St4lessIS5_ESaISt4pairIKS5_S5_EEED1Ev
	nop
	addq	$32, %rsp
	popq	%rbp
	ret
	.seh_endproc
	.section	.text$_ZNSt12_Vector_baseINSt7__cxx1112basic_stringIcSt11char_traitsIcESaIcEEESaIS5_EE12_Vector_implD1Ev,"x"
	.linkonce discard
	.align 2
	.globl	_ZNSt12_Vector_baseINSt7__cxx1112basic_stringIcSt11char_traitsIcESaIcEEESaIS5_EE12_Vector_implD1Ev
	.def	_ZNSt12_Vector_baseINSt7__cxx1112basic_stringIcSt11char_traitsIcESaIcEEESaIS5_EE12_Vector_implD1Ev;	.scl	2;	.type	32;	.endef
	.seh_proc	_ZNSt12_Vector_baseINSt7__cxx1112basic_stringIcSt11char_traitsIcESaIcEEESaIS5_EE12_Vector_implD1Ev
_ZNSt12_Vector_baseINSt7__cxx1112basic_stringIcSt11char_traitsIcESaIcEEESaIS5_EE12_Vector_implD1Ev:
.LFB3801:
	pushq	%rbp
	.seh_pushreg	%rbp
	movq	%rsp, %rbp
	.seh_setframe	%rbp, 0
	subq	$48, %rsp
	.seh_stackalloc	48
	.seh_endprologue
	movq	%rcx, 16(%rbp)
	movq	16(%rbp), %rax
	movq	%rax, -8(%rbp)
	movq	-8(%rbp), %rax
	movq	%rax, %rcx
	call	_ZNSt15__new_allocatorINSt7__cxx1112basic_stringIcSt11char_traitsIcESaIcEEEED2Ev
	nop
	nop
	addq	$48, %rsp
	popq	%rbp
	ret
	.seh_endproc
	.section	.text$_ZNSt12_Vector_baseINSt7__cxx1112basic_stringIcSt11char_traitsIcESaIcEEESaIS5_EEC2Ev,"x"
	.linkonce discard
	.align 2
	.globl	_ZNSt12_Vector_baseINSt7__cxx1112basic_stringIcSt11char_traitsIcESaIcEEESaIS5_EEC2Ev
	.def	_ZNSt12_Vector_baseINSt7__cxx1112basic_stringIcSt11char_traitsIcESaIcEEESaIS5_EEC2Ev;	.scl	2;	.type	32;	.endef
	.seh_proc	_ZNSt12_Vector_baseINSt7__cxx1112basic_stringIcSt11char_traitsIcESaIcEEESaIS5_EEC2Ev
_ZNSt12_Vector_baseINSt7__cxx1112basic_stringIcSt11char_traitsIcESaIcEEESaIS5_EEC2Ev:
.LFB3802:
	pushq	%rbp
	.seh_pushreg	%rbp
	movq	%rsp, %rbp
	.seh_setframe	%rbp, 0
	subq	$32, %rsp
	.seh_stackalloc	32
	.seh_endprologue
	movq	%rcx, 16(%rbp)
	movq	16(%rbp), %rax
	movq	%rax, %rcx
	call	_ZNSt12_Vector_baseINSt7__cxx1112basic_stringIcSt11char_traitsIcESaIcEEESaIS5_EE12_Vector_implC1Ev
	nop
	addq	$32, %rsp
	popq	%rbp
	ret
	.seh_endproc
	.section	.text$_ZNSt6vectorINSt7__cxx1112basic_stringIcSt11char_traitsIcESaIcEEESaIS5_EEC1Ev,"x"
	.linkonce discard
	.align 2
	.globl	_ZNSt6vectorINSt7__cxx1112basic_stringIcSt11char_traitsIcESaIcEEESaIS5_EEC1Ev
	.def	_ZNSt6vectorINSt7__cxx1112basic_stringIcSt11char_traitsIcESaIcEEESaIS5_EEC1Ev;	.scl	2;	.type	32;	.endef
	.seh_proc	_ZNSt6vectorINSt7__cxx1112basic_stringIcSt11char_traitsIcESaIcEEESaIS5_EEC1Ev
_ZNSt6vectorINSt7__cxx1112basic_stringIcSt11char_traitsIcESaIcEEESaIS5_EEC1Ev:
.LFB3805:
	pushq	%rbp
	.seh_pushreg	%rbp
	movq	%rsp, %rbp
	.seh_setframe	%rbp, 0
	subq	$32, %rsp
	.seh_stackalloc	32
	.seh_endprologue
	movq	%rcx, 16(%rbp)
	movq	16(%rbp), %rax
	movq	%rax, %rcx
	call	_ZNSt12_Vector_baseINSt7__cxx1112basic_stringIcSt11char_traitsIcESaIcEEESaIS5_EEC2Ev
	nop
	addq	$32, %rsp
	popq	%rbp
	ret
	.seh_endproc
	.section	.text$_ZN24IntermediateCodeGneratorC1Ev,"x"
	.linkonce discard
	.align 2
	.globl	_ZN24IntermediateCodeGneratorC1Ev
	.def	_ZN24IntermediateCodeGneratorC1Ev;	.scl	2;	.type	32;	.endef
	.seh_proc	_ZN24IntermediateCodeGneratorC1Ev
_ZN24IntermediateCodeGneratorC1Ev:
.LFB3807:
	pushq	%rbp
	.seh_pushreg	%rbp
	movq	%rsp, %rbp
	.seh_setframe	%rbp, 0
	subq	$32, %rsp
	.seh_stackalloc	32
	.seh_endprologue
	movq	%rcx, 16(%rbp)
	movq	16(%rbp), %rax
	movq	%rax, %rcx
	call	_ZNSt6vectorINSt7__cxx1112basic_stringIcSt11char_traitsIcESaIcEEESaIS5_EEC1Ev
	movq	16(%rbp), %rax
	movl	$0, 24(%rax)
	nop
	addq	$32, %rsp
	popq	%rbp
	ret
	.seh_endproc
	.section	.text$_ZN24IntermediateCodeGneratorD1Ev,"x"
	.linkonce discard
	.align 2
	.globl	_ZN24IntermediateCodeGneratorD1Ev
	.def	_ZN24IntermediateCodeGneratorD1Ev;	.scl	2;	.type	32;	.endef
	.seh_proc	_ZN24IntermediateCodeGneratorD1Ev
_ZN24IntermediateCodeGneratorD1Ev:
.LFB3810:
	pushq	%rbp
	.seh_pushreg	%rbp
	movq	%rsp, %rbp
	.seh_setframe	%rbp, 0
	subq	$32, %rsp
	.seh_stackalloc	32
	.seh_endprologue
	movq	%rcx, 16(%rbp)
	movq	16(%rbp), %rax
	movq	%rax, %rcx
	call	_ZNSt6vectorINSt7__cxx1112basic_stringIcSt11char_traitsIcESaIcEEESaIS5_EED1Ev
	nop
	addq	$32, %rsp
	popq	%rbp
	ret
	.seh_endproc
	.section	.text$_ZN6ParserD1Ev,"x"
	.linkonce discard
	.align 2
	.globl	_ZN6ParserD1Ev
	.def	_ZN6ParserD1Ev;	.scl	2;	.type	32;	.endef
	.seh_proc	_ZN6ParserD1Ev
_ZN6ParserD1Ev:
.LFB3813:
	pushq	%rbp
	.seh_pushreg	%rbp
	movq	%rsp, %rbp
	.seh_setframe	%rbp, 0
	subq	$32, %rsp
	.seh_stackalloc	32
	.seh_endprologue
	movq	%rcx, 16(%rbp)
	movq	16(%rbp), %rax
	movq	%rax, %rcx
	call	_ZNSt6vectorI5TokenSaIS0_EED1Ev
	nop
	addq	$32, %rsp
	popq	%rbp
	ret
	.seh_endproc
	.section	.text$_ZN17AssemblyGeneratorD1Ev,"x"
	.linkonce discard
	.align 2
	.globl	_ZN17AssemblyGeneratorD1Ev
	.def	_ZN17AssemblyGeneratorD1Ev;	.scl	2;	.type	32;	.endef
	.seh_proc	_ZN17AssemblyGeneratorD1Ev
_ZN17AssemblyGeneratorD1Ev:
.LFB3816:
	pushq	%rbp
	.seh_pushreg	%rbp
	movq	%rsp, %rbp
	.seh_setframe	%rbp, 0
	subq	$32, %rsp
	.seh_stackalloc	32
	.seh_endprologue
	movq	%rcx, 16(%rbp)
	movq	16(%rbp), %rax
	addq	$136, %rax
	movq	%rax, %rcx
	call	_ZNSt14basic_ofstreamIcSt11char_traitsIcEED1Ev
	movq	16(%rbp), %rax
	addq	$80, %rax
	movq	%rax, %rcx
	call	_ZNSt13unordered_mapINSt7__cxx1112basic_stringIcSt11char_traitsIcESaIcEEES5_St4hashIS5_ESt8equal_toIS5_ESaISt4pairIKS5_S5_EEED1Ev
	movq	16(%rbp), %rax
	addq	$24, %rax
	movq	%rax, %rcx
	call	_ZNSt13unordered_mapINSt7__cxx1112basic_stringIcSt11char_traitsIcESaIcEEES5_St4hashIS5_ESt8equal_toIS5_ESaISt4pairIKS5_S5_EEED1Ev
	movq	16(%rbp), %rax
	movq	%rax, %rcx
	call	_ZNSt6vectorINSt7__cxx1112basic_stringIcSt11char_traitsIcESaIcEEESaIS5_EED1Ev
	nop
	addq	$32, %rsp
	popq	%rbp
	ret
	.seh_endproc
	.section .rdata,"dr"
.LC109:
	.ascii "Usage: \0"
.LC110:
	.ascii " <source_file>\0"
.LC111:
	.ascii "File \0"
.LC112:
	.ascii " not found.\0"
.LC113:
	.ascii "Complete code\0"
	.text
	.globl	main
	.def	main;	.scl	2;	.type	32;	.endef
	.seh_proc	main
main:
.LFB3770:
	pushq	%rbp
	.seh_pushreg	%rbp
	pushq	%rbx
	.seh_pushreg	%rbx
	subq	$1464, %rsp
	.seh_stackalloc	1464
	leaq	128(%rsp), %rbp
	.seh_setframe	%rbp, 128
	.seh_endprologue
	movl	%ecx, 1360(%rbp)
	movq	%rdx, 1368(%rbp)
	call	__main
	cmpl	$1, 1360(%rbp)
	jg	.L682
	leaq	.LC109(%rip), %rax
	movq	%rax, %rdx
	movq	.refptr._ZSt4cerr(%rip), %rax
	movq	%rax, %rcx
.LEHB238:
	call	_ZStlsISt11char_traitsIcEERSt13basic_ostreamIcT_ES5_PKc
	movq	%rax, %rcx
	movq	1368(%rbp), %rax
	movq	(%rax), %rax
	movq	%rax, %rdx
	call	_ZStlsISt11char_traitsIcEERSt13basic_ostreamIcT_ES5_PKc
	movq	%rax, %rcx
	leaq	.LC110(%rip), %rax
	movq	%rax, %rdx
	call	_ZStlsISt11char_traitsIcEERSt13basic_ostreamIcT_ES5_PKc
	movq	%rax, %rcx
	movq	.refptr._ZSt4endlIcSt11char_traitsIcEERSt13basic_ostreamIT_T0_ES6_(%rip), %rax
	movq	%rax, %rdx
	call	_ZNSolsEPFRSoS_E
	movl	$1, %ebx
	jmp	.L688
.L682:
	movq	1368(%rbp), %rax
	addq	$8, %rax
	movq	(%rax), %rdx
	leaq	832(%rbp), %rax
	movl	$8, %r8d
	movq	%rax, %rcx
	call	_ZNSt14basic_ifstreamIcSt11char_traitsIcEEC1EPKcSt13_Ios_Openmode
.LEHE238:
	leaq	832(%rbp), %rax
	addq	$224, %rax
	movq	%rax, %rcx
.LEHB239:
	call	_ZNKSt9basic_iosIcSt11char_traitsIcEEntEv
	testb	%al, %al
	je	.L684
	leaq	.LC111(%rip), %rax
	movq	%rax, %rdx
	movq	.refptr._ZSt4cerr(%rip), %rax
	movq	%rax, %rcx
	call	_ZStlsISt11char_traitsIcEERSt13basic_ostreamIcT_ES5_PKc
	movq	%rax, %rcx
	movq	1368(%rbp), %rax
	addq	$8, %rax
	movq	(%rax), %rax
	movq	%rax, %rdx
	call	_ZStlsISt11char_traitsIcEERSt13basic_ostreamIcT_ES5_PKc
	movq	%rax, %rcx
	leaq	.LC112(%rip), %rax
	movq	%rax, %rdx
	call	_ZStlsISt11char_traitsIcEERSt13basic_ostreamIcT_ES5_PKc
	movq	%rax, %rcx
	movq	.refptr._ZSt4endlIcSt11char_traitsIcEERSt13basic_ostreamIT_T0_ES6_(%rip), %rax
	movq	%rax, %rdx
	call	_ZNSolsEPFRSoS_E
.LEHE239:
	movl	$1, %ebx
	jmp	.L685
.L684:
	leaq	800(%rbp), %rax
	movq	%rax, %rcx
	call	_ZNSt7__cxx1112basic_stringIcSt11char_traitsIcESaIcEEC1Ev
	leaq	768(%rbp), %rax
	movq	%rax, %rcx
	call	_ZNSt7__cxx1112basic_stringIcSt11char_traitsIcESaIcEEC1Ev
	jmp	.L686
.L687:
	leaq	768(%rbp), %rdx
	leaq	800(%rbp), %rax
	movq	%rax, %rcx
.LEHB240:
	call	_ZNSt7__cxx1112basic_stringIcSt11char_traitsIcESaIcEE6appendERKS4_
	leaq	800(%rbp), %rax
	leaq	.LC76(%rip), %rdx
	movq	%rax, %rcx
	call	_ZNSt7__cxx1112basic_stringIcSt11char_traitsIcESaIcEE6appendEPKc
.L686:
	leaq	768(%rbp), %rdx
	leaq	832(%rbp), %rax
	movq	%rax, %rcx
	call	_ZSt7getlineIcSt11char_traitsIcESaIcEERSt13basic_istreamIT_T0_ES7_RNSt7__cxx1112basic_stringIS4_S5_T1_EE
	movq	(%rax), %rdx
	subq	$24, %rdx
	movq	(%rdx), %rdx
	addq	%rdx, %rax
	movq	%rax, %rcx
	call	_ZNKSt9basic_iosIcSt11char_traitsIcEEcvbEv
	testb	%al, %al
	jne	.L687
	leaq	832(%rbp), %rax
	movq	%rax, %rcx
	call	_ZNSt14basic_ifstreamIcSt11char_traitsIcEE5closeEv
	leaq	.LC113(%rip), %rax
	movq	%rax, %rdx
	movq	.refptr._ZSt4cout(%rip), %rax
	movq	%rax, %rcx
	call	_ZStlsISt11char_traitsIcEERSt13basic_ostreamIcT_ES5_PKc
	movq	%rax, %rcx
	movq	.refptr._ZSt4endlIcSt11char_traitsIcEERSt13basic_ostreamIT_T0_ES6_(%rip), %rax
	movq	%rax, %rdx
	call	_ZNSolsEPFRSoS_E
	leaq	800(%rbp), %rax
	movq	%rax, %rdx
	movq	.refptr._ZSt4cout(%rip), %rax
	movq	%rax, %rcx
	call	_ZStlsIcSt11char_traitsIcESaIcEERSt13basic_ostreamIT_T0_ES7_RKNSt7__cxx1112basic_stringIS4_S5_T1_EE
	movq	%rax, %rcx
	movq	.refptr._ZSt4endlIcSt11char_traitsIcEERSt13basic_ostreamIT_T0_ES6_(%rip), %rax
	movq	%rax, %rdx
	call	_ZNSolsEPFRSoS_E
	leaq	800(%rbp), %rdx
	leaq	720(%rbp), %rax
	movq	%rax, %rcx
	call	_ZN5LexerC1ERKNSt7__cxx1112basic_stringIcSt11char_traitsIcESaIcEEE
.LEHE240:
	leaq	688(%rbp), %rax
	leaq	720(%rbp), %rdx
	movq	%rax, %rcx
.LEHB241:
	call	_ZN5Lexer8tokenizeEv
.LEHE241:
	leaq	640(%rbp), %rax
	movq	%rax, %rcx
	call	_ZN11SymbolTableC1Ev
	leaq	608(%rbp), %rax
	movq	%rax, %rcx
	call	_ZN24IntermediateCodeGneratorC1Ev
	leaq	608(%rbp), %r8
	leaq	640(%rbp), %rcx
	leaq	688(%rbp), %rdx
	leaq	560(%rbp), %rax
	movq	%r8, %r9
	movq	%rcx, %r8
	movq	%rax, %rcx
.LEHB242:
	call	_ZN6ParserC1ERKSt6vectorI5TokenSaIS1_EER11SymbolTableR24IntermediateCodeGnerator
.LEHE242:
	leaq	560(%rbp), %rax
	movq	%rax, %rcx
.LEHB243:
	call	_ZN6Parser12parseProgramEv
	leaq	528(%rbp), %rax
	leaq	560(%rbp), %rdx
	movq	%rax, %rcx
	call	_ZN6Parser19getIntermediateCodeB5cxx11Ev
.LEHE243:
	leaq	528(%rbp), %rdx
	leaq	-96(%rbp), %rax
	movq	%rax, %rcx
.LEHB244:
	call	_ZN17AssemblyGeneratorC1ERKSt6vectorINSt7__cxx1112basic_stringIcSt11char_traitsIcESaIcEEESaIS6_EE
.LEHE244:
	leaq	-96(%rbp), %rax
	movq	%rax, %rcx
.LEHB245:
	call	_ZN17AssemblyGenerator16generateAssemblyEv
.LEHE245:
	movl	$0, %ebx
	leaq	-96(%rbp), %rax
	movq	%rax, %rcx
	call	_ZN17AssemblyGeneratorD1Ev
	leaq	528(%rbp), %rax
	movq	%rax, %rcx
	call	_ZNSt6vectorINSt7__cxx1112basic_stringIcSt11char_traitsIcESaIcEEESaIS5_EED1Ev
	leaq	560(%rbp), %rax
	movq	%rax, %rcx
	call	_ZN6ParserD1Ev
	leaq	608(%rbp), %rax
	movq	%rax, %rcx
	call	_ZN24IntermediateCodeGneratorD1Ev
	leaq	640(%rbp), %rax
	movq	%rax, %rcx
	call	_ZN11SymbolTableD1Ev
	leaq	688(%rbp), %rax
	movq	%rax, %rcx
	call	_ZNSt6vectorI5TokenSaIS0_EED1Ev
	leaq	720(%rbp), %rax
	movq	%rax, %rcx
	call	_ZN5LexerD1Ev
	leaq	768(%rbp), %rax
	movq	%rax, %rcx
	call	_ZNSt7__cxx1112basic_stringIcSt11char_traitsIcESaIcEED1Ev
	leaq	800(%rbp), %rax
	movq	%rax, %rcx
	call	_ZNSt7__cxx1112basic_stringIcSt11char_traitsIcESaIcEED1Ev
.L685:
	leaq	832(%rbp), %rax
	movq	%rax, %rcx
	call	_ZNSt14basic_ifstreamIcSt11char_traitsIcEED1Ev
.L688:
	movl	%ebx, %eax
	jmp	.L703
.L702:
	movq	%rax, %rbx
	leaq	-96(%rbp), %rax
	movq	%rax, %rcx
	call	_ZN17AssemblyGeneratorD1Ev
	jmp	.L690
.L701:
	movq	%rax, %rbx
.L690:
	leaq	528(%rbp), %rax
	movq	%rax, %rcx
	call	_ZNSt6vectorINSt7__cxx1112basic_stringIcSt11char_traitsIcESaIcEEESaIS5_EED1Ev
	jmp	.L691
.L700:
	movq	%rax, %rbx
.L691:
	leaq	560(%rbp), %rax
	movq	%rax, %rcx
	call	_ZN6ParserD1Ev
	jmp	.L692
.L699:
	movq	%rax, %rbx
.L692:
	leaq	608(%rbp), %rax
	movq	%rax, %rcx
	call	_ZN24IntermediateCodeGneratorD1Ev
	leaq	640(%rbp), %rax
	movq	%rax, %rcx
